---
triple:          'x86_64-apple-darwin'
binary-path:     main
relocations:
  - { offsetInCU: 0xAC48, offset: 0xAC48, size: 0x8, addend: 0x0, symName: __ZNSt3__1neB7v160006ERKNS_16__deque_iteratorINS_6chrono10time_pointINS1_12steady_clockENS1_8durationIxNS_5ratioILl1ELl1000000000EEEEEEEPS8_RS8_PS9_lLl512EEESE_, symObjAddr: 0x810, symBinAddr: 0x1000046A0, symSize: 0x30 }
  - { offsetInCU: 0xAC85, offset: 0xAC85, size: 0x8, addend: 0x0, symName: __ZNSt3__1eqB7v160006ERKNS_16__deque_iteratorINS_6chrono10time_pointINS1_12steady_clockENS1_8durationIxNS_5ratioILl1ELl1000000000EEEEEEEPS8_RS8_PS9_lLl512EEESE_, symObjAddr: 0xA80, symBinAddr: 0x100004910, symSize: 0x30 }
  - { offsetInCU: 0xACC2, offset: 0xACC2, size: 0x8, addend: 0x0, symName: __ZNSt3__119__libcpp_deallocateB7v160006EPvmm, symObjAddr: 0xB80, symBinAddr: 0x100004A10, symSize: 0x30 }
  - { offsetInCU: 0xAD0A, offset: 0xAD0A, size: 0x8, addend: 0x0, symName: __ZNSt3__127__do_deallocate_handle_sizeB7v160006IJEEEvPvmDpT_, symObjAddr: 0xBB0, symBinAddr: 0x100004A40, symSize: 0x20 }
  - { offsetInCU: 0xAD48, offset: 0xAD48, size: 0x8, addend: 0x0, symName: __ZNSt3__124__libcpp_operator_deleteB7v160006IJPvEEEvDpT_, symObjAddr: 0xBD0, symBinAddr: 0x100004A60, symSize: 0x20 }
  - { offsetInCU: 0xAD7D, offset: 0xAD7D, size: 0x8, addend: 0x0, symName: __ZNSt3__112__to_addressB7v160006IPNS_6chrono10time_pointINS1_12steady_clockENS1_8durationIxNS_5ratioILl1ELl1000000000EEEEEEEEEPT_SB_, symObjAddr: 0xE10, symBinAddr: 0x100004CA0, symSize: 0x10 }
  - { offsetInCU: 0xADB2, offset: 0xADB2, size: 0x8, addend: 0x0, symName: __ZNSt3__118__debug_db_erase_cB7v160006INS_12__hash_tableINS_17__hash_value_typeIi4BotsEENS_22__unordered_map_hasherIiS4_NS_4hashIiEENS_8equal_toIiEELb1EEENS_21__unordered_map_equalIiS4_S9_S7_Lb1EEENS_9allocatorIS4_EEEEEEvPT_, symObjAddr: 0x1040, symBinAddr: 0x100004ED0, symSize: 0x10 }
  - { offsetInCU: 0xAEA3, offset: 0xAEA3, size: 0x8, addend: 0x0, symName: __ZNSt3__118__debug_db_erase_cB7v160006INS_6vectorI13ExecutedTradeNS_9allocatorIS2_EEEEEEvPT_, symObjAddr: 0x15C0, symBinAddr: 0x100005450, symSize: 0x10 }
  - { offsetInCU: 0xAED4, offset: 0xAED4, size: 0x8, addend: 0x0, symName: __ZNSt3__112__to_addressB7v160006I13ExecutedTradeEEPT_S3_, symObjAddr: 0x16F0, symBinAddr: 0x100005580, symSize: 0x10 }
  - { offsetInCU: 0xAF09, offset: 0xAF09, size: 0x8, addend: 0x0, symName: __ZNSt3__118__debug_db_erase_cB7v160006INS_6vectorI5OrderNS_9allocatorIS2_EEEEEEvPT_, symObjAddr: 0x1AA0, symBinAddr: 0x100005930, symSize: 0x10 }
  - { offsetInCU: 0xAF3A, offset: 0xAF3A, size: 0x8, addend: 0x0, symName: __ZNSt3__112__to_addressB7v160006I5OrderEEPT_S3_, symObjAddr: 0x1BB0, symBinAddr: 0x100005A40, symSize: 0x10 }
  - { offsetInCU: 0xAF6F, offset: 0xAF6F, size: 0x8, addend: 0x0, symName: __ZNSt3__122__make_exception_guardB7v160006INS_6vectorI12MarketMakersNS_9allocatorIS2_EEE16__destroy_vectorEEENS_28__exception_guard_exceptionsIT_EES8_, symObjAddr: 0x1EB0, symBinAddr: 0x100005D40, symSize: 0x40 }
  - { offsetInCU: 0xAFA4, offset: 0xAFA4, size: 0x8, addend: 0x0, symName: __ZNSt3__119__debug_db_insert_cB7v160006INS_6vectorI12MarketMakersNS_9allocatorIS2_EEEEEEvPT_, symObjAddr: 0x1F20, symBinAddr: 0x100005DB0, symSize: 0x10 }
  - { offsetInCU: 0xAFD5, offset: 0xAFD5, size: 0x8, addend: 0x0, symName: __ZNSt3__119__allocate_at_leastB7v160006INS_9allocatorI12MarketMakersEEEENS_19__allocation_resultINS_16allocator_traitsIT_E7pointerEEERS6_m, symObjAddr: 0x22A0, symBinAddr: 0x100006130, symSize: 0x40 }
  - { offsetInCU: 0xB018, offset: 0xB018, size: 0x8, addend: 0x0, symName: __ZNSt3__13minB7v160006ImEERKT_S3_S3_, symObjAddr: 0x23C0, symBinAddr: 0x100006250, symSize: 0x30 }
  - { offsetInCU: 0xB25C, offset: 0xB25C, size: 0x8, addend: 0x0, symName: __ZNSt3__13minB7v160006ImNS_6__lessImmEEEERKT_S5_S5_T0_, symObjAddr: 0x2440, symBinAddr: 0x1000062D0, symSize: 0x50 }
  - { offsetInCU: 0xB2F1, offset: 0xB2F1, size: 0x8, addend: 0x0, symName: __ZNSt3__120__throw_length_errorB7v160006EPKc, symObjAddr: 0x2520, symBinAddr: 0x1000063B0, symSize: 0x70 }
  - { offsetInCU: 0xB319, offset: 0xB319, size: 0x8, addend: 0x0, symName: __ZNSt3__117__libcpp_allocateB7v160006Emm, symObjAddr: 0x2690, symBinAddr: 0x100006520, symSize: 0x20 }
  - { offsetInCU: 0xB356, offset: 0xB356, size: 0x8, addend: 0x0, symName: __ZNSt3__121__libcpp_operator_newB7v160006IJmEEEPvDpT_, symObjAddr: 0x26B0, symBinAddr: 0x100006540, symSize: 0x20 }
  - { offsetInCU: 0xB38F, offset: 0xB38F, size: 0x8, addend: 0x0, symName: __ZNSt3__112__to_addressB7v160006I12MarketMakersEEPT_S3_, symObjAddr: 0x27B0, symBinAddr: 0x100006640, symSize: 0x10 }
  - { offsetInCU: 0xB3C4, offset: 0xB3C4, size: 0x8, addend: 0x0, symName: __ZNSt3__130__uninitialized_allocator_copyB7v160006INS_9allocatorI12MarketMakersEES2_S2_LPv0EEEPT0_RT_PKS5_SA_S6_, symObjAddr: 0x2840, symBinAddr: 0x1000066D0, symSize: 0x30 }
  - { offsetInCU: 0xB43C, offset: 0xB43C, size: 0x8, addend: 0x0, symName: __ZNSt3__14copyB7v160006IPK12MarketMakersPS1_EET0_T_S6_S5_, symObjAddr: 0x28D0, symBinAddr: 0x100006760, symSize: 0x40 }
  - { offsetInCU: 0xB496, offset: 0xB496, size: 0x8, addend: 0x0, symName: __ZNSt3__16__copyB7v160006INS_17_ClassicAlgPolicyEPK12MarketMakersS4_PS2_EENS_4pairIT0_T2_EES7_T1_S8_, symObjAddr: 0x2910, symBinAddr: 0x1000067A0, symSize: 0x40 }
  - { offsetInCU: 0xB502, offset: 0xB502, size: 0x8, addend: 0x0, symName: __ZNSt3__123__dispatch_copy_or_moveB7v160006INS_17_ClassicAlgPolicyENS_11__copy_loopIS1_EENS_14__copy_trivialEPK12MarketMakersS7_PS5_EENS_4pairIT2_T4_EESA_T3_SB_, symObjAddr: 0x2950, symBinAddr: 0x1000067E0, symSize: 0x40 }
  - { offsetInCU: 0xB580, offset: 0xB580, size: 0x8, addend: 0x0, symName: __ZNSt3__121__unwrap_and_dispatchB7v160006INS_10__overloadINS_11__copy_loopINS_17_ClassicAlgPolicyEEENS_14__copy_trivialEEEPK12MarketMakersS9_PS7_Li0EEENS_4pairIT0_T2_EESC_T1_SD_, symObjAddr: 0x2990, symBinAddr: 0x100006820, symSize: 0xB0 }
  - { offsetInCU: 0xB60F, offset: 0xB60F, size: 0x8, addend: 0x0, symName: __ZNSt3__114__unwrap_rangeB7v160006IPK12MarketMakersS3_EENS_4pairIT0_S5_EET_S7_, symObjAddr: 0x2A40, symBinAddr: 0x1000068D0, symSize: 0x50 }
  - { offsetInCU: 0xB7A4, offset: 0xB7A4, size: 0x8, addend: 0x0, symName: __ZNSt3__113__unwrap_iterB7v160006IP12MarketMakersNS_18__unwrap_iter_implIS2_Lb1EEELi0EEEDTclsrT0_8__unwrapclsr3stdE7declvalIT_EEEES6_, symObjAddr: 0x2AD0, symBinAddr: 0x100006960, symSize: 0x20 }
  - { offsetInCU: 0xB7E8, offset: 0xB7E8, size: 0x8, addend: 0x0, symName: __ZNSt3__19make_pairB7v160006IPK12MarketMakersPS1_EENS_4pairINS_18__unwrap_ref_decayIT_E4typeENS6_IT0_E4typeEEEOS7_OSA_, symObjAddr: 0x2AF0, symBinAddr: 0x100006980, symSize: 0x30 }
  - { offsetInCU: 0xB837, offset: 0xB837, size: 0x8, addend: 0x0, symName: __ZNSt3__114__rewrap_rangeB7v160006IPK12MarketMakersS3_EET_S4_T0_, symObjAddr: 0x2B20, symBinAddr: 0x1000069B0, symSize: 0x30 }
  - { offsetInCU: 0xB883, offset: 0xB883, size: 0x8, addend: 0x0, symName: __ZNSt3__113__rewrap_iterB7v160006IP12MarketMakersS2_NS_18__unwrap_iter_implIS2_Lb1EEEEET_S5_T0_, symObjAddr: 0x2B50, symBinAddr: 0x1000069E0, symSize: 0x40 }
  - { offsetInCU: 0xB8D8, offset: 0xB8D8, size: 0x8, addend: 0x0, symName: __ZNSt3__19make_pairB7v160006IPK12MarketMakersS3_EENS_4pairINS_18__unwrap_ref_decayIT_E4typeENS5_IT0_E4typeEEEOS6_OS9_, symObjAddr: 0x2B90, symBinAddr: 0x100006A20, symSize: 0x30 }
  - { offsetInCU: 0xB927, offset: 0xB927, size: 0x8, addend: 0x0, symName: __ZNSt3__113__unwrap_iterB7v160006IPK12MarketMakersNS_18__unwrap_iter_implIS3_Lb1EEELi0EEEDTclsrT0_8__unwrapclsr3stdE7declvalIT_EEEES7_, symObjAddr: 0x2BC0, symBinAddr: 0x100006A50, symSize: 0x20 }
  - { offsetInCU: 0xBA92, offset: 0xBA92, size: 0x8, addend: 0x0, symName: __ZNSt3__112__to_addressB7v160006IK12MarketMakersEEPT_S4_, symObjAddr: 0x2C60, symBinAddr: 0x100006AF0, symSize: 0x10 }
  - { offsetInCU: 0xBAC7, offset: 0xBAC7, size: 0x8, addend: 0x0, symName: __ZNSt3__119__copy_trivial_implB7v160006IK12MarketMakersS1_EENS_4pairIPT_PT0_EES5_S5_S7_, symObjAddr: 0x2C70, symBinAddr: 0x100006B00, symSize: 0x90 }
  - { offsetInCU: 0xBB2F, offset: 0xBB2F, size: 0x8, addend: 0x0, symName: __ZNSt3__19make_pairB7v160006IRPK12MarketMakersPS1_EENS_4pairINS_18__unwrap_ref_decayIT_E4typeENS7_IT0_E4typeEEEOS8_OSB_, symObjAddr: 0x2D00, symBinAddr: 0x100006B90, symSize: 0x30 }
  - { offsetInCU: 0xBBD1, offset: 0xBBD1, size: 0x8, addend: 0x0, symName: __ZNSt3__113__rewrap_iterB7v160006IPK12MarketMakersS3_NS_18__unwrap_iter_implIS3_Lb1EEEEET_S6_T0_, symObjAddr: 0x2E10, symBinAddr: 0x100006CA0, symSize: 0x40 }
  - { offsetInCU: 0xBC26, offset: 0xBC26, size: 0x8, addend: 0x0, symName: __ZNSt3__118__debug_db_erase_cB7v160006INS_6vectorI12MarketMakersNS_9allocatorIS2_EEEEEEvPT_, symObjAddr: 0x30B0, symBinAddr: 0x100006F40, symSize: 0x10 }
  - { offsetInCU: 0xBF79, offset: 0xBF79, size: 0x8, addend: 0x0, symName: __ZSt28__throw_bad_array_new_lengthB7v160006v, symObjAddr: 0x2650, symBinAddr: 0x1000064E0, symSize: 0x40 }
  - { offsetInCU: 0xF36D, offset: 0xF36D, size: 0x8, addend: 0x0, symName: _main, symObjAddr: 0x0, symBinAddr: 0x100003E90, symSize: 0x1C0 }
  - { offsetInCU: 0xF3C4, offset: 0xF3C4, size: 0x8, addend: 0x0, symName: __ZN12MarketMakersC1Edd, symObjAddr: 0x1C0, symBinAddr: 0x100004050, symSize: 0x30 }
  - { offsetInCU: 0xF409, offset: 0xF409, size: 0x8, addend: 0x0, symName: __ZNSt3__16vectorI12MarketMakersNS_9allocatorIS1_EEEC1B7v160006ESt16initializer_listIS1_E, symObjAddr: 0x1F0, symBinAddr: 0x100004080, symSize: 0x30 }
  - { offsetInCU: 0xF444, offset: 0xF444, size: 0x8, addend: 0x0, symName: __ZNSt3__16vectorI12MarketMakersNS_9allocatorIS1_EEED1B7v160006Ev, symObjAddr: 0x220, symBinAddr: 0x1000040B0, symSize: 0x20 }
  - { offsetInCU: 0xF46D, offset: 0xF46D, size: 0x8, addend: 0x0, symName: __ZN6MarketD1Ev, symObjAddr: 0x240, symBinAddr: 0x1000040D0, symSize: 0x20 }
  - { offsetInCU: 0xF499, offset: 0xF499, size: 0x8, addend: 0x0, symName: __ZN12MarketMakersC2Edd, symObjAddr: 0x260, symBinAddr: 0x1000040F0, symSize: 0x40 }
  - { offsetInCU: 0xF4DE, offset: 0xF4DE, size: 0x8, addend: 0x0, symName: __ZN6MarketD2Ev, symObjAddr: 0x2A0, symBinAddr: 0x100004130, symSize: 0x80 }
  - { offsetInCU: 0xF50A, offset: 0xF50A, size: 0x8, addend: 0x0, symName: __ZNSt3__15queueINS_6chrono10time_pointINS1_12steady_clockENS1_8durationIxNS_5ratioILl1ELl1000000000EEEEEEENS_5dequeIS8_NS_9allocatorIS8_EEEEED1Ev, symObjAddr: 0x320, symBinAddr: 0x1000041B0, symSize: 0x20 }
  - { offsetInCU: 0xF537, offset: 0xF537, size: 0x8, addend: 0x0, symName: __ZNSt3__113unordered_mapIi4BotsNS_4hashIiEENS_8equal_toIiEENS_9allocatorINS_4pairIKiS1_EEEEED1B7v160006Ev, symObjAddr: 0x340, symBinAddr: 0x1000041D0, symSize: 0x20 }
  - { offsetInCU: 0xF560, offset: 0xF560, size: 0x8, addend: 0x0, symName: __ZNSt3__16vectorI13ExecutedTradeNS_9allocatorIS1_EEED1B7v160006Ev, symObjAddr: 0x360, symBinAddr: 0x1000041F0, symSize: 0x20 }
  - { offsetInCU: 0xF589, offset: 0xF589, size: 0x8, addend: 0x0, symName: __ZNSt3__114priority_queueI5OrderNS_6vectorIS1_NS_9allocatorIS1_EEEE16CompareSellOrderED1Ev, symObjAddr: 0x380, symBinAddr: 0x100004210, symSize: 0x20 }
  - { offsetInCU: 0xF5B6, offset: 0xF5B6, size: 0x8, addend: 0x0, symName: __ZNSt3__114priority_queueI5OrderNS_6vectorIS1_NS_9allocatorIS1_EEEE15CompareBuyOrderED1Ev, symObjAddr: 0x3A0, symBinAddr: 0x100004230, symSize: 0x20 }
  - { offsetInCU: 0xF5E3, offset: 0xF5E3, size: 0x8, addend: 0x0, symName: __ZNSt3__15queueINS_6chrono10time_pointINS1_12steady_clockENS1_8durationIxNS_5ratioILl1ELl1000000000EEEEEEENS_5dequeIS8_NS_9allocatorIS8_EEEEED2Ev, symObjAddr: 0x3C0, symBinAddr: 0x100004250, symSize: 0x20 }
  - { offsetInCU: 0xF610, offset: 0xF610, size: 0x8, addend: 0x0, symName: __ZNSt3__15dequeINS_6chrono10time_pointINS1_12steady_clockENS1_8durationIxNS_5ratioILl1ELl1000000000EEEEEEENS_9allocatorIS8_EEED1B7v160006Ev, symObjAddr: 0x3E0, symBinAddr: 0x100004270, symSize: 0x20 }
  - { offsetInCU: 0xF639, offset: 0xF639, size: 0x8, addend: 0x0, symName: __ZNSt3__15dequeINS_6chrono10time_pointINS1_12steady_clockENS1_8durationIxNS_5ratioILl1ELl1000000000EEEEEEENS_9allocatorIS8_EEED2B7v160006Ev, symObjAddr: 0x400, symBinAddr: 0x100004290, symSize: 0x80 }
  - { offsetInCU: 0xF691, offset: 0xF691, size: 0x8, addend: 0x0, symName: __ZNSt3__15dequeINS_6chrono10time_pointINS1_12steady_clockENS1_8durationIxNS_5ratioILl1ELl1000000000EEEEEEENS_9allocatorIS8_EEE5clearEv, symObjAddr: 0x480, symBinAddr: 0x100004310, symSize: 0x180 }
  - { offsetInCU: 0xF6F0, offset: 0xF6F0, size: 0x8, addend: 0x0, symName: __ZNSt3__114__split_bufferIPNS_6chrono10time_pointINS1_12steady_clockENS1_8durationIxNS_5ratioILl1ELl1000000000EEEEEEENS_9allocatorIS9_EEE5beginB7v160006Ev, symObjAddr: 0x600, symBinAddr: 0x100004490, symSize: 0x20 }
  - { offsetInCU: 0xF716, offset: 0xF716, size: 0x8, addend: 0x0, symName: __ZNSt3__114__split_bufferIPNS_6chrono10time_pointINS1_12steady_clockENS1_8durationIxNS_5ratioILl1ELl1000000000EEEEEEENS_9allocatorIS9_EEE3endB7v160006Ev, symObjAddr: 0x620, symBinAddr: 0x1000044B0, symSize: 0x20 }
  - { offsetInCU: 0xF73C, offset: 0xF73C, size: 0x8, addend: 0x0, symName: __ZNSt3__116allocator_traitsINS_9allocatorINS_6chrono10time_pointINS2_12steady_clockENS2_8durationIxNS_5ratioILl1ELl1000000000EEEEEEEEEE10deallocateB7v160006ERSA_PS9_m, symObjAddr: 0x640, symBinAddr: 0x1000044D0, symSize: 0x30 }
  - { offsetInCU: 0xF77E, offset: 0xF77E, size: 0x8, addend: 0x0, symName: __ZNSt3__15dequeINS_6chrono10time_pointINS1_12steady_clockENS1_8durationIxNS_5ratioILl1ELl1000000000EEEEEEENS_9allocatorIS8_EEE7__allocB7v160006Ev, symObjAddr: 0x670, symBinAddr: 0x100004500, symSize: 0x20 }
  - { offsetInCU: 0xF7A4, offset: 0xF7A4, size: 0x8, addend: 0x0, symName: __ZNSt3__114__split_bufferIPNS_6chrono10time_pointINS1_12steady_clockENS1_8durationIxNS_5ratioILl1ELl1000000000EEEEEEENS_9allocatorIS9_EEED1Ev, symObjAddr: 0x690, symBinAddr: 0x100004520, symSize: 0x20 }
  - { offsetInCU: 0xF7D0, offset: 0xF7D0, size: 0x8, addend: 0x0, symName: __ZNSt3__15dequeINS_6chrono10time_pointINS1_12steady_clockENS1_8durationIxNS_5ratioILl1ELl1000000000EEEEEEENS_9allocatorIS8_EEE5beginB7v160006Ev, symObjAddr: 0x6B0, symBinAddr: 0x100004540, symSize: 0xB0 }
  - { offsetInCU: 0xF806, offset: 0xF806, size: 0x8, addend: 0x0, symName: __ZNSt3__15dequeINS_6chrono10time_pointINS1_12steady_clockENS1_8durationIxNS_5ratioILl1ELl1000000000EEEEEEENS_9allocatorIS8_EEE3endB7v160006Ev, symObjAddr: 0x760, symBinAddr: 0x1000045F0, symSize: 0xB0 }
  - { offsetInCU: 0xF84C, offset: 0xF84C, size: 0x8, addend: 0x0, symName: __ZNSt3__116allocator_traitsINS_9allocatorINS_6chrono10time_pointINS2_12steady_clockENS2_8durationIxNS_5ratioILl1ELl1000000000EEEEEEEEEE7destroyB7v160006IS9_vEEvRSA_PT_, symObjAddr: 0x850, symBinAddr: 0x1000046E0, symSize: 0x30 }
  - { offsetInCU: 0xF889, offset: 0xF889, size: 0x8, addend: 0x0, symName: __ZNKSt3__116__deque_iteratorINS_6chrono10time_pointINS1_12steady_clockENS1_8durationIxNS_5ratioILl1ELl1000000000EEEEEEEPS8_RS8_PS9_lLl512EEdeB7v160006Ev, symObjAddr: 0x880, symBinAddr: 0x100004710, symSize: 0x20 }
  - { offsetInCU: 0xF8AF, offset: 0xF8AF, size: 0x8, addend: 0x0, symName: __ZNSt3__116__deque_iteratorINS_6chrono10time_pointINS1_12steady_clockENS1_8durationIxNS_5ratioILl1ELl1000000000EEEEEEEPS8_RS8_PS9_lLl512EEppB7v160006Ev, symObjAddr: 0x8A0, symBinAddr: 0x100004730, symSize: 0x60 }
  - { offsetInCU: 0xF8D5, offset: 0xF8D5, size: 0x8, addend: 0x0, symName: __ZNSt3__15dequeINS_6chrono10time_pointINS1_12steady_clockENS1_8durationIxNS_5ratioILl1ELl1000000000EEEEEEENS_9allocatorIS8_EEE6__sizeB7v160006Ev, symObjAddr: 0x900, symBinAddr: 0x100004790, symSize: 0x20 }
  - { offsetInCU: 0xF8FB, offset: 0xF8FB, size: 0x8, addend: 0x0, symName: __ZNKSt3__114__split_bufferIPNS_6chrono10time_pointINS1_12steady_clockENS1_8durationIxNS_5ratioILl1ELl1000000000EEEEEEENS_9allocatorIS9_EEE4sizeB7v160006Ev, symObjAddr: 0x920, symBinAddr: 0x1000047B0, symSize: 0x20 }
  - { offsetInCU: 0xF921, offset: 0xF921, size: 0x8, addend: 0x0, symName: __ZNSt3__114__split_bufferIPNS_6chrono10time_pointINS1_12steady_clockENS1_8durationIxNS_5ratioILl1ELl1000000000EEEEEEENS_9allocatorIS9_EEE5frontB7v160006Ev, symObjAddr: 0x940, symBinAddr: 0x1000047D0, symSize: 0x20 }
  - { offsetInCU: 0xF947, offset: 0xF947, size: 0x8, addend: 0x0, symName: __ZNSt3__114__split_bufferIPNS_6chrono10time_pointINS1_12steady_clockENS1_8durationIxNS_5ratioILl1ELl1000000000EEEEEEENS_9allocatorIS9_EEE9pop_frontB7v160006Ev, symObjAddr: 0x960, symBinAddr: 0x1000047F0, symSize: 0x30 }
  - { offsetInCU: 0xF96D, offset: 0xF96D, size: 0x8, addend: 0x0, symName: __ZNKSt3__114__split_bufferIPNS_6chrono10time_pointINS1_12steady_clockENS1_8durationIxNS_5ratioILl1ELl1000000000EEEEEEENS_9allocatorIS9_EEE5emptyB7v160006Ev, symObjAddr: 0x990, symBinAddr: 0x100004820, symSize: 0x20 }
  - { offsetInCU: 0xF993, offset: 0xF993, size: 0x8, addend: 0x0, symName: __ZNSt3__116__deque_iteratorINS_6chrono10time_pointINS1_12steady_clockENS1_8durationIxNS_5ratioILl1ELl1000000000EEEEEEEPS8_RS8_PS9_lLl512EEC1B7v160006ESB_S9_, symObjAddr: 0x9B0, symBinAddr: 0x100004840, symSize: 0x30 }
  - { offsetInCU: 0xF9DA, offset: 0xF9DA, size: 0x8, addend: 0x0, symName: __ZNSt3__116__deque_iteratorINS_6chrono10time_pointINS1_12steady_clockENS1_8durationIxNS_5ratioILl1ELl1000000000EEEEEEEPS8_RS8_PS9_lLl512EEC2B7v160006ESB_S9_, symObjAddr: 0x9E0, symBinAddr: 0x100004870, symSize: 0x30 }
  - { offsetInCU: 0xFA21, offset: 0xFA21, size: 0x8, addend: 0x0, symName: __ZNKSt3__15dequeINS_6chrono10time_pointINS1_12steady_clockENS1_8durationIxNS_5ratioILl1ELl1000000000EEEEEEENS_9allocatorIS8_EEE4sizeB7v160006Ev, symObjAddr: 0xA10, symBinAddr: 0x1000048A0, symSize: 0x20 }
  - { offsetInCU: 0xFA47, offset: 0xFA47, size: 0x8, addend: 0x0, symName: __ZNKSt3__15dequeINS_6chrono10time_pointINS1_12steady_clockENS1_8durationIxNS_5ratioILl1ELl1000000000EEEEEEENS_9allocatorIS8_EEE6__sizeB7v160006Ev, symObjAddr: 0xA30, symBinAddr: 0x1000048C0, symSize: 0x20 }
  - { offsetInCU: 0xFA6D, offset: 0xFA6D, size: 0x8, addend: 0x0, symName: __ZNKSt3__117__compressed_pairImNS_9allocatorINS_6chrono10time_pointINS2_12steady_clockENS2_8durationIxNS_5ratioILl1ELl1000000000EEEEEEEEEE5firstB7v160006Ev, symObjAddr: 0xA50, symBinAddr: 0x1000048E0, symSize: 0x20 }
  - { offsetInCU: 0xFA93, offset: 0xFA93, size: 0x8, addend: 0x0, symName: __ZNKSt3__122__compressed_pair_elemImLi0ELb0EE5__getB7v160006Ev, symObjAddr: 0xA70, symBinAddr: 0x100004900, symSize: 0x10 }
  - { offsetInCU: 0xFAB9, offset: 0xFAB9, size: 0x8, addend: 0x0, symName: __ZNSt3__19allocatorINS_6chrono10time_pointINS1_12steady_clockENS1_8durationIxNS_5ratioILl1ELl1000000000EEEEEEEE7destroyB7v160006EPS8_, symObjAddr: 0xAB0, symBinAddr: 0x100004940, symSize: 0x10 }
  - { offsetInCU: 0xFAED, offset: 0xFAED, size: 0x8, addend: 0x0, symName: __ZNSt3__117__compressed_pairImNS_9allocatorINS_6chrono10time_pointINS2_12steady_clockENS2_8durationIxNS_5ratioILl1ELl1000000000EEEEEEEEEE5firstB7v160006Ev, symObjAddr: 0xAC0, symBinAddr: 0x100004950, symSize: 0x20 }
  - { offsetInCU: 0xFB13, offset: 0xFB13, size: 0x8, addend: 0x0, symName: __ZNSt3__122__compressed_pair_elemImLi0ELb0EE5__getB7v160006Ev, symObjAddr: 0xAE0, symBinAddr: 0x100004970, symSize: 0x10 }
  - { offsetInCU: 0xFB39, offset: 0xFB39, size: 0x8, addend: 0x0, symName: __ZNSt3__114__split_bufferIPNS_6chrono10time_pointINS1_12steady_clockENS1_8durationIxNS_5ratioILl1ELl1000000000EEEEEEENS_9allocatorIS9_EEE19__destruct_at_beginB7v160006EPS9_, symObjAddr: 0xAF0, symBinAddr: 0x100004980, symSize: 0x30 }
  - { offsetInCU: 0xFB6D, offset: 0xFB6D, size: 0x8, addend: 0x0, symName: __ZNSt3__114__split_bufferIPNS_6chrono10time_pointINS1_12steady_clockENS1_8durationIxNS_5ratioILl1ELl1000000000EEEEEEENS_9allocatorIS9_EEE19__destruct_at_beginEPS9_NS_17integral_constantIbLb1EEE, symObjAddr: 0xB20, symBinAddr: 0x1000049B0, symSize: 0x20 }
  - { offsetInCU: 0xFBAE, offset: 0xFBAE, size: 0x8, addend: 0x0, symName: __ZNSt3__19allocatorINS_6chrono10time_pointINS1_12steady_clockENS1_8durationIxNS_5ratioILl1ELl1000000000EEEEEEEE10deallocateB7v160006EPS8_m, symObjAddr: 0xB40, symBinAddr: 0x1000049D0, symSize: 0x40 }
  - { offsetInCU: 0xFBF0, offset: 0xFBF0, size: 0x8, addend: 0x0, symName: __ZNSt3__117__compressed_pairImNS_9allocatorINS_6chrono10time_pointINS2_12steady_clockENS2_8durationIxNS_5ratioILl1ELl1000000000EEEEEEEEEE6secondB7v160006Ev, symObjAddr: 0xBF0, symBinAddr: 0x100004A80, symSize: 0x20 }
  - { offsetInCU: 0xFC16, offset: 0xFC16, size: 0x8, addend: 0x0, symName: __ZNSt3__122__compressed_pair_elemINS_9allocatorINS_6chrono10time_pointINS2_12steady_clockENS2_8durationIxNS_5ratioILl1ELl1000000000EEEEEEEEELi1ELb1EE5__getB7v160006Ev, symObjAddr: 0xC10, symBinAddr: 0x100004AA0, symSize: 0x10 }
  - { offsetInCU: 0xFC3C, offset: 0xFC3C, size: 0x8, addend: 0x0, symName: __ZNSt3__114__split_bufferIPNS_6chrono10time_pointINS1_12steady_clockENS1_8durationIxNS_5ratioILl1ELl1000000000EEEEEEENS_9allocatorIS9_EEED2Ev, symObjAddr: 0xC20, symBinAddr: 0x100004AB0, symSize: 0x70 }
  - { offsetInCU: 0xFC68, offset: 0xFC68, size: 0x8, addend: 0x0, symName: __ZNSt3__114__split_bufferIPNS_6chrono10time_pointINS1_12steady_clockENS1_8durationIxNS_5ratioILl1ELl1000000000EEEEEEENS_9allocatorIS9_EEE5clearB7v160006Ev, symObjAddr: 0xC90, symBinAddr: 0x100004B20, symSize: 0x20 }
  - { offsetInCU: 0xFC8E, offset: 0xFC8E, size: 0x8, addend: 0x0, symName: __ZNSt3__116allocator_traitsINS_9allocatorIPNS_6chrono10time_pointINS2_12steady_clockENS2_8durationIxNS_5ratioILl1ELl1000000000EEEEEEEEEE10deallocateB7v160006ERSB_PSA_m, symObjAddr: 0xCB0, symBinAddr: 0x100004B40, symSize: 0x30 }
  - { offsetInCU: 0xFCD0, offset: 0xFCD0, size: 0x8, addend: 0x0, symName: __ZNSt3__114__split_bufferIPNS_6chrono10time_pointINS1_12steady_clockENS1_8durationIxNS_5ratioILl1ELl1000000000EEEEEEENS_9allocatorIS9_EEE7__allocB7v160006Ev, symObjAddr: 0xCE0, symBinAddr: 0x100004B70, symSize: 0x20 }
  - { offsetInCU: 0xFCF6, offset: 0xFCF6, size: 0x8, addend: 0x0, symName: __ZNKSt3__114__split_bufferIPNS_6chrono10time_pointINS1_12steady_clockENS1_8durationIxNS_5ratioILl1ELl1000000000EEEEEEENS_9allocatorIS9_EEE8capacityB7v160006Ev, symObjAddr: 0xD00, symBinAddr: 0x100004B90, symSize: 0x30 }
  - { offsetInCU: 0xFD1C, offset: 0xFD1C, size: 0x8, addend: 0x0, symName: __ZNSt3__114__split_bufferIPNS_6chrono10time_pointINS1_12steady_clockENS1_8durationIxNS_5ratioILl1ELl1000000000EEEEEEENS_9allocatorIS9_EEE17__destruct_at_endB7v160006EPS9_, symObjAddr: 0xD30, symBinAddr: 0x100004BC0, symSize: 0x30 }
  - { offsetInCU: 0xFD50, offset: 0xFD50, size: 0x8, addend: 0x0, symName: __ZNSt3__114__split_bufferIPNS_6chrono10time_pointINS1_12steady_clockENS1_8durationIxNS_5ratioILl1ELl1000000000EEEEEEENS_9allocatorIS9_EEE17__destruct_at_endB7v160006EPS9_NS_17integral_constantIbLb0EEE, symObjAddr: 0xD60, symBinAddr: 0x100004BF0, symSize: 0x80 }
  - { offsetInCU: 0xFD91, offset: 0xFD91, size: 0x8, addend: 0x0, symName: __ZNSt3__116allocator_traitsINS_9allocatorIPNS_6chrono10time_pointINS2_12steady_clockENS2_8durationIxNS_5ratioILl1ELl1000000000EEEEEEEEEE7destroyB7v160006ISA_vEEvRSB_PT_, symObjAddr: 0xDE0, symBinAddr: 0x100004C70, symSize: 0x30 }
  - { offsetInCU: 0xFDCE, offset: 0xFDCE, size: 0x8, addend: 0x0, symName: __ZNSt3__19allocatorIPNS_6chrono10time_pointINS1_12steady_clockENS1_8durationIxNS_5ratioILl1ELl1000000000EEEEEEEE7destroyB7v160006EPS9_, symObjAddr: 0xE20, symBinAddr: 0x100004CB0, symSize: 0x10 }
  - { offsetInCU: 0xFE02, offset: 0xFE02, size: 0x8, addend: 0x0, symName: __ZNSt3__19allocatorIPNS_6chrono10time_pointINS1_12steady_clockENS1_8durationIxNS_5ratioILl1ELl1000000000EEEEEEEE10deallocateB7v160006EPS9_m, symObjAddr: 0xE30, symBinAddr: 0x100004CC0, symSize: 0x40 }
  - { offsetInCU: 0xFE44, offset: 0xFE44, size: 0x8, addend: 0x0, symName: __ZNSt3__117__compressed_pairIPPNS_6chrono10time_pointINS1_12steady_clockENS1_8durationIxNS_5ratioILl1ELl1000000000EEEEEEENS_9allocatorIS9_EEE6secondB7v160006Ev, symObjAddr: 0xE70, symBinAddr: 0x100004D00, symSize: 0x20 }
  - { offsetInCU: 0xFE6A, offset: 0xFE6A, size: 0x8, addend: 0x0, symName: __ZNSt3__122__compressed_pair_elemINS_9allocatorIPNS_6chrono10time_pointINS2_12steady_clockENS2_8durationIxNS_5ratioILl1ELl1000000000EEEEEEEEELi1ELb1EE5__getB7v160006Ev, symObjAddr: 0xE90, symBinAddr: 0x100004D20, symSize: 0x10 }
  - { offsetInCU: 0xFE90, offset: 0xFE90, size: 0x8, addend: 0x0, symName: __ZNKSt3__114__split_bufferIPNS_6chrono10time_pointINS1_12steady_clockENS1_8durationIxNS_5ratioILl1ELl1000000000EEEEEEENS_9allocatorIS9_EEE9__end_capB7v160006Ev, symObjAddr: 0xEA0, symBinAddr: 0x100004D30, symSize: 0x20 }
  - { offsetInCU: 0xFEB6, offset: 0xFEB6, size: 0x8, addend: 0x0, symName: __ZNKSt3__117__compressed_pairIPPNS_6chrono10time_pointINS1_12steady_clockENS1_8durationIxNS_5ratioILl1ELl1000000000EEEEEEENS_9allocatorIS9_EEE5firstB7v160006Ev, symObjAddr: 0xEC0, symBinAddr: 0x100004D50, symSize: 0x20 }
  - { offsetInCU: 0xFEDC, offset: 0xFEDC, size: 0x8, addend: 0x0, symName: __ZNKSt3__122__compressed_pair_elemIPPNS_6chrono10time_pointINS1_12steady_clockENS1_8durationIxNS_5ratioILl1ELl1000000000EEEEEEELi0ELb0EE5__getB7v160006Ev, symObjAddr: 0xEE0, symBinAddr: 0x100004D70, symSize: 0x10 }
  - { offsetInCU: 0xFF02, offset: 0xFF02, size: 0x8, addend: 0x0, symName: __ZNSt3__113unordered_mapIi4BotsNS_4hashIiEENS_8equal_toIiEENS_9allocatorINS_4pairIKiS1_EEEEED2B7v160006Ev, symObjAddr: 0xEF0, symBinAddr: 0x100004D80, symSize: 0x20 }
  - { offsetInCU: 0xFF2B, offset: 0xFF2B, size: 0x8, addend: 0x0, symName: __ZNSt3__112__hash_tableINS_17__hash_value_typeIi4BotsEENS_22__unordered_map_hasherIiS3_NS_4hashIiEENS_8equal_toIiEELb1EEENS_21__unordered_map_equalIiS3_S8_S6_Lb1EEENS_9allocatorIS3_EEED1Ev, symObjAddr: 0xF10, symBinAddr: 0x100004DA0, symSize: 0x20 }
  - { offsetInCU: 0xFF57, offset: 0xFF57, size: 0x8, addend: 0x0, symName: __ZNSt3__112__hash_tableINS_17__hash_value_typeIi4BotsEENS_22__unordered_map_hasherIiS3_NS_4hashIiEENS_8equal_toIiEELb1EEENS_21__unordered_map_equalIiS3_S8_S6_Lb1EEENS_9allocatorIS3_EEED2Ev, symObjAddr: 0xF30, symBinAddr: 0x100004DC0, symSize: 0x50 }
  - { offsetInCU: 0xFF83, offset: 0xFF83, size: 0x8, addend: 0x0, symName: __ZNSt3__112__hash_tableINS_17__hash_value_typeIi4BotsEENS_22__unordered_map_hasherIiS3_NS_4hashIiEENS_8equal_toIiEELb1EEENS_21__unordered_map_equalIiS3_S8_S6_Lb1EEENS_9allocatorIS3_EEE17__deallocate_nodeEPNS_16__hash_node_baseIPNS_11__hash_nodeIS3_PvEEEE, symObjAddr: 0xF80, symBinAddr: 0x100004E10, symSize: 0xA0 }
  - { offsetInCU: 0xFFF1, offset: 0xFFF1, size: 0x8, addend: 0x0, symName: __ZNSt3__117__compressed_pairINS_16__hash_node_baseIPNS_11__hash_nodeINS_17__hash_value_typeIi4BotsEEPvEEEENS_9allocatorIS7_EEE5firstB7v160006Ev, symObjAddr: 0x1020, symBinAddr: 0x100004EB0, symSize: 0x20 }
  - { offsetInCU: 0x10017, offset: 0x10017, size: 0x8, addend: 0x0, symName: __ZNSt3__110unique_ptrIA_PNS_16__hash_node_baseIPNS_11__hash_nodeINS_17__hash_value_typeIi4BotsEEPvEEEENS_25__bucket_list_deallocatorINS_9allocatorISA_EEEEED1B7v160006Ev, symObjAddr: 0x1050, symBinAddr: 0x100004EE0, symSize: 0x20 }
  - { offsetInCU: 0x10040, offset: 0x10040, size: 0x8, addend: 0x0, symName: __ZNSt3__112__hash_tableINS_17__hash_value_typeIi4BotsEENS_22__unordered_map_hasherIiS3_NS_4hashIiEENS_8equal_toIiEELb1EEENS_21__unordered_map_equalIiS3_S8_S6_Lb1EEENS_9allocatorIS3_EEE12__node_allocB7v160006Ev, symObjAddr: 0x1070, symBinAddr: 0x100004F00, symSize: 0x20 }
  - { offsetInCU: 0x10066, offset: 0x10066, size: 0x8, addend: 0x0, symName: __ZNSt3__116__hash_node_baseIPNS_11__hash_nodeINS_17__hash_value_typeIi4BotsEEPvEEE8__upcastB7v160006Ev, symObjAddr: 0x1090, symBinAddr: 0x100004F20, symSize: 0x20 }
  - { offsetInCU: 0x10091, offset: 0x10091, size: 0x8, addend: 0x0, symName: __ZNSt3__116allocator_traitsINS_9allocatorINS_11__hash_nodeINS_17__hash_value_typeIi4BotsEEPvEEEEE7destroyB7v160006INS_4pairIKiS4_EEvvEEvRS8_PT_, symObjAddr: 0x10B0, symBinAddr: 0x100004F40, symSize: 0x10 }
  - { offsetInCU: 0x100CB, offset: 0x100CB, size: 0x8, addend: 0x0, symName: __ZNSt3__122__hash_key_value_typesINS_17__hash_value_typeIi4BotsEEE9__get_ptrB7v160006ERS3_, symObjAddr: 0x10C0, symBinAddr: 0x100004F50, symSize: 0x20 }
  - { offsetInCU: 0x100EE, offset: 0x100EE, size: 0x8, addend: 0x0, symName: __ZNSt3__116allocator_traitsINS_9allocatorINS_11__hash_nodeINS_17__hash_value_typeIi4BotsEEPvEEEEE10deallocateB7v160006ERS8_PS7_m, symObjAddr: 0x10E0, symBinAddr: 0x100004F70, symSize: 0x30 }
  - { offsetInCU: 0x10130, offset: 0x10130, size: 0x8, addend: 0x0, symName: __ZNSt3__117__compressed_pairINS_16__hash_node_baseIPNS_11__hash_nodeINS_17__hash_value_typeIi4BotsEEPvEEEENS_9allocatorIS7_EEE6secondB7v160006Ev, symObjAddr: 0x1110, symBinAddr: 0x100004FA0, symSize: 0x20 }
  - { offsetInCU: 0x10156, offset: 0x10156, size: 0x8, addend: 0x0, symName: __ZNSt3__122__compressed_pair_elemINS_9allocatorINS_11__hash_nodeINS_17__hash_value_typeIi4BotsEEPvEEEELi1ELb1EE5__getB7v160006Ev, symObjAddr: 0x1130, symBinAddr: 0x100004FC0, symSize: 0x10 }
  - { offsetInCU: 0x1017C, offset: 0x1017C, size: 0x8, addend: 0x0, symName: __ZNSt3__114pointer_traitsIPNS_16__hash_node_baseIPNS_11__hash_nodeINS_17__hash_value_typeIi4BotsEEPvEEEEE10pointer_toB7v160006ERS9_, symObjAddr: 0x1140, symBinAddr: 0x100004FD0, symSize: 0x10 }
  - { offsetInCU: 0x1019F, offset: 0x1019F, size: 0x8, addend: 0x0, symName: __ZNSt3__117__hash_value_typeIi4BotsE11__get_valueB7v160006Ev, symObjAddr: 0x1150, symBinAddr: 0x100004FE0, symSize: 0x10 }
  - { offsetInCU: 0x101C5, offset: 0x101C5, size: 0x8, addend: 0x0, symName: __ZNSt3__19allocatorINS_11__hash_nodeINS_17__hash_value_typeIi4BotsEEPvEEE10deallocateB7v160006EPS6_m, symObjAddr: 0x1160, symBinAddr: 0x100004FF0, symSize: 0x50 }
  - { offsetInCU: 0x10207, offset: 0x10207, size: 0x8, addend: 0x0, symName: __ZNSt3__122__compressed_pair_elemINS_16__hash_node_baseIPNS_11__hash_nodeINS_17__hash_value_typeIi4BotsEEPvEEEELi0ELb0EE5__getB7v160006Ev, symObjAddr: 0x11B0, symBinAddr: 0x100005040, symSize: 0x10 }
  - { offsetInCU: 0x1022D, offset: 0x1022D, size: 0x8, addend: 0x0, symName: __ZNSt3__110unique_ptrIA_PNS_16__hash_node_baseIPNS_11__hash_nodeINS_17__hash_value_typeIi4BotsEEPvEEEENS_25__bucket_list_deallocatorINS_9allocatorISA_EEEEED2B7v160006Ev, symObjAddr: 0x11C0, symBinAddr: 0x100005050, symSize: 0x20 }
  - { offsetInCU: 0x10256, offset: 0x10256, size: 0x8, addend: 0x0, symName: __ZNSt3__110unique_ptrIA_PNS_16__hash_node_baseIPNS_11__hash_nodeINS_17__hash_value_typeIi4BotsEEPvEEEENS_25__bucket_list_deallocatorINS_9allocatorISA_EEEEE5resetB7v160006EDn, symObjAddr: 0x11E0, symBinAddr: 0x100005070, symSize: 0x60 }
  - { offsetInCU: 0x10297, offset: 0x10297, size: 0x8, addend: 0x0, symName: __ZNSt3__117__compressed_pairIPPNS_16__hash_node_baseIPNS_11__hash_nodeINS_17__hash_value_typeIi4BotsEEPvEEEENS_25__bucket_list_deallocatorINS_9allocatorISA_EEEEE5firstB7v160006Ev, symObjAddr: 0x1240, symBinAddr: 0x1000050D0, symSize: 0x20 }
  - { offsetInCU: 0x102BD, offset: 0x102BD, size: 0x8, addend: 0x0, symName: __ZNSt3__117__compressed_pairIPPNS_16__hash_node_baseIPNS_11__hash_nodeINS_17__hash_value_typeIi4BotsEEPvEEEENS_25__bucket_list_deallocatorINS_9allocatorISA_EEEEE6secondB7v160006Ev, symObjAddr: 0x1260, symBinAddr: 0x1000050F0, symSize: 0x20 }
  - { offsetInCU: 0x102E3, offset: 0x102E3, size: 0x8, addend: 0x0, symName: __ZNSt3__125__bucket_list_deallocatorINS_9allocatorIPNS_16__hash_node_baseIPNS_11__hash_nodeINS_17__hash_value_typeIi4BotsEEPvEEEEEEEclB7v160006EPSB_, symObjAddr: 0x1280, symBinAddr: 0x100005110, symSize: 0x50 }
  - { offsetInCU: 0x10318, offset: 0x10318, size: 0x8, addend: 0x0, symName: __ZNSt3__122__compressed_pair_elemIPPNS_16__hash_node_baseIPNS_11__hash_nodeINS_17__hash_value_typeIi4BotsEEPvEEEELi0ELb0EE5__getB7v160006Ev, symObjAddr: 0x12D0, symBinAddr: 0x100005160, symSize: 0x10 }
  - { offsetInCU: 0x1033E, offset: 0x1033E, size: 0x8, addend: 0x0, symName: __ZNSt3__122__compressed_pair_elemINS_25__bucket_list_deallocatorINS_9allocatorIPNS_16__hash_node_baseIPNS_11__hash_nodeINS_17__hash_value_typeIi4BotsEEPvEEEEEEEELi1ELb0EE5__getB7v160006Ev, symObjAddr: 0x12E0, symBinAddr: 0x100005170, symSize: 0x10 }
  - { offsetInCU: 0x10364, offset: 0x10364, size: 0x8, addend: 0x0, symName: __ZNSt3__116allocator_traitsINS_9allocatorIPNS_16__hash_node_baseIPNS_11__hash_nodeINS_17__hash_value_typeIi4BotsEEPvEEEEEEE10deallocateB7v160006ERSC_PSB_m, symObjAddr: 0x12F0, symBinAddr: 0x100005180, symSize: 0x30 }
  - { offsetInCU: 0x103A6, offset: 0x103A6, size: 0x8, addend: 0x0, symName: __ZNSt3__125__bucket_list_deallocatorINS_9allocatorIPNS_16__hash_node_baseIPNS_11__hash_nodeINS_17__hash_value_typeIi4BotsEEPvEEEEEEE7__allocB7v160006Ev, symObjAddr: 0x1320, symBinAddr: 0x1000051B0, symSize: 0x20 }
  - { offsetInCU: 0x103CC, offset: 0x103CC, size: 0x8, addend: 0x0, symName: __ZNSt3__125__bucket_list_deallocatorINS_9allocatorIPNS_16__hash_node_baseIPNS_11__hash_nodeINS_17__hash_value_typeIi4BotsEEPvEEEEEEE4sizeB7v160006Ev, symObjAddr: 0x1340, symBinAddr: 0x1000051D0, symSize: 0x20 }
  - { offsetInCU: 0x103F2, offset: 0x103F2, size: 0x8, addend: 0x0, symName: __ZNSt3__19allocatorIPNS_16__hash_node_baseIPNS_11__hash_nodeINS_17__hash_value_typeIi4BotsEEPvEEEEE10deallocateB7v160006EPSA_m, symObjAddr: 0x1360, symBinAddr: 0x1000051F0, symSize: 0x40 }
  - { offsetInCU: 0x10434, offset: 0x10434, size: 0x8, addend: 0x0, symName: __ZNSt3__117__compressed_pairImNS_9allocatorIPNS_16__hash_node_baseIPNS_11__hash_nodeINS_17__hash_value_typeIi4BotsEEPvEEEEEEE6secondB7v160006Ev, symObjAddr: 0x13A0, symBinAddr: 0x100005230, symSize: 0x20 }
  - { offsetInCU: 0x1045A, offset: 0x1045A, size: 0x8, addend: 0x0, symName: __ZNSt3__122__compressed_pair_elemINS_9allocatorIPNS_16__hash_node_baseIPNS_11__hash_nodeINS_17__hash_value_typeIi4BotsEEPvEEEEEELi1ELb1EE5__getB7v160006Ev, symObjAddr: 0x13C0, symBinAddr: 0x100005250, symSize: 0x10 }
  - { offsetInCU: 0x10480, offset: 0x10480, size: 0x8, addend: 0x0, symName: __ZNSt3__117__compressed_pairImNS_9allocatorIPNS_16__hash_node_baseIPNS_11__hash_nodeINS_17__hash_value_typeIi4BotsEEPvEEEEEEE5firstB7v160006Ev, symObjAddr: 0x13D0, symBinAddr: 0x100005260, symSize: 0x20 }
  - { offsetInCU: 0x104A6, offset: 0x104A6, size: 0x8, addend: 0x0, symName: __ZNSt3__16vectorI13ExecutedTradeNS_9allocatorIS1_EEED2B7v160006Ev, symObjAddr: 0x13F0, symBinAddr: 0x100005280, symSize: 0x40 }
  - { offsetInCU: 0x104CF, offset: 0x104CF, size: 0x8, addend: 0x0, symName: __ZNSt3__16vectorI13ExecutedTradeNS_9allocatorIS1_EEE16__destroy_vectorC1ERS4_, symObjAddr: 0x1430, symBinAddr: 0x1000052C0, symSize: 0x30 }
  - { offsetInCU: 0x10507, offset: 0x10507, size: 0x8, addend: 0x0, symName: __ZNSt3__16vectorI13ExecutedTradeNS_9allocatorIS1_EEE16__destroy_vectorclB7v160006Ev, symObjAddr: 0x1460, symBinAddr: 0x1000052F0, symSize: 0x90 }
  - { offsetInCU: 0x1052D, offset: 0x1052D, size: 0x8, addend: 0x0, symName: __ZNSt3__16vectorI13ExecutedTradeNS_9allocatorIS1_EEE16__destroy_vectorC2ERS4_, symObjAddr: 0x14F0, symBinAddr: 0x100005380, symSize: 0x20 }
  - { offsetInCU: 0x10565, offset: 0x10565, size: 0x8, addend: 0x0, symName: __ZNKSt3__16vectorI13ExecutedTradeNS_9allocatorIS1_EEE17__annotate_deleteB7v160006Ev, symObjAddr: 0x1510, symBinAddr: 0x1000053A0, symSize: 0xB0 }
  - { offsetInCU: 0x1058B, offset: 0x1058B, size: 0x8, addend: 0x0, symName: __ZNSt3__16vectorI13ExecutedTradeNS_9allocatorIS1_EEE7__clearB7v160006Ev, symObjAddr: 0x15D0, symBinAddr: 0x100005460, symSize: 0x20 }
  - { offsetInCU: 0x105B1, offset: 0x105B1, size: 0x8, addend: 0x0, symName: __ZNSt3__116allocator_traitsINS_9allocatorI13ExecutedTradeEEE10deallocateB7v160006ERS3_PS2_m, symObjAddr: 0x15F0, symBinAddr: 0x100005480, symSize: 0x30 }
  - { offsetInCU: 0x105F3, offset: 0x105F3, size: 0x8, addend: 0x0, symName: __ZNSt3__16vectorI13ExecutedTradeNS_9allocatorIS1_EEE7__allocB7v160006Ev, symObjAddr: 0x1620, symBinAddr: 0x1000054B0, symSize: 0x20 }
  - { offsetInCU: 0x10619, offset: 0x10619, size: 0x8, addend: 0x0, symName: __ZNKSt3__16vectorI13ExecutedTradeNS_9allocatorIS1_EEE8capacityB7v160006Ev, symObjAddr: 0x1640, symBinAddr: 0x1000054D0, symSize: 0x40 }
  - { offsetInCU: 0x1063F, offset: 0x1063F, size: 0x8, addend: 0x0, symName: __ZNKSt3__16vectorI13ExecutedTradeNS_9allocatorIS1_EEE31__annotate_contiguous_containerB7v160006EPKvS6_S6_S6_, symObjAddr: 0x1680, symBinAddr: 0x100005510, symSize: 0x20 }
  - { offsetInCU: 0x10691, offset: 0x10691, size: 0x8, addend: 0x0, symName: __ZNKSt3__16vectorI13ExecutedTradeNS_9allocatorIS1_EEE4dataB7v160006Ev, symObjAddr: 0x16A0, symBinAddr: 0x100005530, symSize: 0x20 }
  - { offsetInCU: 0x106B7, offset: 0x106B7, size: 0x8, addend: 0x0, symName: __ZNKSt3__16vectorI13ExecutedTradeNS_9allocatorIS1_EEE4sizeB7v160006Ev, symObjAddr: 0x16C0, symBinAddr: 0x100005550, symSize: 0x30 }
  - { offsetInCU: 0x106DD, offset: 0x106DD, size: 0x8, addend: 0x0, symName: __ZNSt3__16vectorI13ExecutedTradeNS_9allocatorIS1_EEE22__base_destruct_at_endB7v160006EPS1_, symObjAddr: 0x1700, symBinAddr: 0x100005590, symSize: 0x80 }
  - { offsetInCU: 0x10722, offset: 0x10722, size: 0x8, addend: 0x0, symName: __ZNSt3__116allocator_traitsINS_9allocatorI13ExecutedTradeEEE7destroyB7v160006IS2_vEEvRS3_PT_, symObjAddr: 0x1780, symBinAddr: 0x100005610, symSize: 0x30 }
  - { offsetInCU: 0x1075F, offset: 0x1075F, size: 0x8, addend: 0x0, symName: __ZNSt3__19allocatorI13ExecutedTradeE7destroyB7v160006EPS1_, symObjAddr: 0x17B0, symBinAddr: 0x100005640, symSize: 0x10 }
  - { offsetInCU: 0x10793, offset: 0x10793, size: 0x8, addend: 0x0, symName: __ZNSt3__19allocatorI13ExecutedTradeE10deallocateB7v160006EPS1_m, symObjAddr: 0x17C0, symBinAddr: 0x100005650, symSize: 0x50 }
  - { offsetInCU: 0x107D5, offset: 0x107D5, size: 0x8, addend: 0x0, symName: __ZNSt3__117__compressed_pairIP13ExecutedTradeNS_9allocatorIS1_EEE6secondB7v160006Ev, symObjAddr: 0x1810, symBinAddr: 0x1000056A0, symSize: 0x20 }
  - { offsetInCU: 0x107FB, offset: 0x107FB, size: 0x8, addend: 0x0, symName: __ZNSt3__122__compressed_pair_elemINS_9allocatorI13ExecutedTradeEELi1ELb1EE5__getB7v160006Ev, symObjAddr: 0x1830, symBinAddr: 0x1000056C0, symSize: 0x10 }
  - { offsetInCU: 0x10821, offset: 0x10821, size: 0x8, addend: 0x0, symName: __ZNKSt3__16vectorI13ExecutedTradeNS_9allocatorIS1_EEE9__end_capB7v160006Ev, symObjAddr: 0x1840, symBinAddr: 0x1000056D0, symSize: 0x20 }
  - { offsetInCU: 0x10847, offset: 0x10847, size: 0x8, addend: 0x0, symName: __ZNKSt3__117__compressed_pairIP13ExecutedTradeNS_9allocatorIS1_EEE5firstB7v160006Ev, symObjAddr: 0x1860, symBinAddr: 0x1000056F0, symSize: 0x20 }
  - { offsetInCU: 0x1086D, offset: 0x1086D, size: 0x8, addend: 0x0, symName: __ZNKSt3__122__compressed_pair_elemIP13ExecutedTradeLi0ELb0EE5__getB7v160006Ev, symObjAddr: 0x1880, symBinAddr: 0x100005710, symSize: 0x10 }
  - { offsetInCU: 0x10893, offset: 0x10893, size: 0x8, addend: 0x0, symName: __ZNSt3__114priority_queueI5OrderNS_6vectorIS1_NS_9allocatorIS1_EEEE16CompareSellOrderED2Ev, symObjAddr: 0x1890, symBinAddr: 0x100005720, symSize: 0x20 }
  - { offsetInCU: 0x108C0, offset: 0x108C0, size: 0x8, addend: 0x0, symName: __ZNSt3__16vectorI5OrderNS_9allocatorIS1_EEED1B7v160006Ev, symObjAddr: 0x18B0, symBinAddr: 0x100005740, symSize: 0x20 }
  - { offsetInCU: 0x108E9, offset: 0x108E9, size: 0x8, addend: 0x0, symName: __ZNSt3__16vectorI5OrderNS_9allocatorIS1_EEED2B7v160006Ev, symObjAddr: 0x18D0, symBinAddr: 0x100005760, symSize: 0x40 }
  - { offsetInCU: 0x10912, offset: 0x10912, size: 0x8, addend: 0x0, symName: __ZNSt3__16vectorI5OrderNS_9allocatorIS1_EEE16__destroy_vectorC1ERS4_, symObjAddr: 0x1910, symBinAddr: 0x1000057A0, symSize: 0x30 }
  - { offsetInCU: 0x1094A, offset: 0x1094A, size: 0x8, addend: 0x0, symName: __ZNSt3__16vectorI5OrderNS_9allocatorIS1_EEE16__destroy_vectorclB7v160006Ev, symObjAddr: 0x1940, symBinAddr: 0x1000057D0, symSize: 0x90 }
  - { offsetInCU: 0x10970, offset: 0x10970, size: 0x8, addend: 0x0, symName: __ZNSt3__16vectorI5OrderNS_9allocatorIS1_EEE16__destroy_vectorC2ERS4_, symObjAddr: 0x19D0, symBinAddr: 0x100005860, symSize: 0x20 }
  - { offsetInCU: 0x109A8, offset: 0x109A8, size: 0x8, addend: 0x0, symName: __ZNKSt3__16vectorI5OrderNS_9allocatorIS1_EEE17__annotate_deleteB7v160006Ev, symObjAddr: 0x19F0, symBinAddr: 0x100005880, symSize: 0xB0 }
  - { offsetInCU: 0x109CE, offset: 0x109CE, size: 0x8, addend: 0x0, symName: __ZNSt3__16vectorI5OrderNS_9allocatorIS1_EEE7__clearB7v160006Ev, symObjAddr: 0x1AB0, symBinAddr: 0x100005940, symSize: 0x20 }
  - { offsetInCU: 0x109F4, offset: 0x109F4, size: 0x8, addend: 0x0, symName: __ZNSt3__116allocator_traitsINS_9allocatorI5OrderEEE10deallocateB7v160006ERS3_PS2_m, symObjAddr: 0x1AD0, symBinAddr: 0x100005960, symSize: 0x30 }
  - { offsetInCU: 0x10A36, offset: 0x10A36, size: 0x8, addend: 0x0, symName: __ZNSt3__16vectorI5OrderNS_9allocatorIS1_EEE7__allocB7v160006Ev, symObjAddr: 0x1B00, symBinAddr: 0x100005990, symSize: 0x20 }
  - { offsetInCU: 0x10A5C, offset: 0x10A5C, size: 0x8, addend: 0x0, symName: __ZNKSt3__16vectorI5OrderNS_9allocatorIS1_EEE8capacityB7v160006Ev, symObjAddr: 0x1B20, symBinAddr: 0x1000059B0, symSize: 0x30 }
  - { offsetInCU: 0x10A82, offset: 0x10A82, size: 0x8, addend: 0x0, symName: __ZNKSt3__16vectorI5OrderNS_9allocatorIS1_EEE31__annotate_contiguous_containerB7v160006EPKvS6_S6_S6_, symObjAddr: 0x1B50, symBinAddr: 0x1000059E0, symSize: 0x20 }
  - { offsetInCU: 0x10AD4, offset: 0x10AD4, size: 0x8, addend: 0x0, symName: __ZNKSt3__16vectorI5OrderNS_9allocatorIS1_EEE4dataB7v160006Ev, symObjAddr: 0x1B70, symBinAddr: 0x100005A00, symSize: 0x20 }
  - { offsetInCU: 0x10AFA, offset: 0x10AFA, size: 0x8, addend: 0x0, symName: __ZNKSt3__16vectorI5OrderNS_9allocatorIS1_EEE4sizeB7v160006Ev, symObjAddr: 0x1B90, symBinAddr: 0x100005A20, symSize: 0x20 }
  - { offsetInCU: 0x10B20, offset: 0x10B20, size: 0x8, addend: 0x0, symName: __ZNSt3__16vectorI5OrderNS_9allocatorIS1_EEE22__base_destruct_at_endB7v160006EPS1_, symObjAddr: 0x1BC0, symBinAddr: 0x100005A50, symSize: 0x80 }
  - { offsetInCU: 0x10B65, offset: 0x10B65, size: 0x8, addend: 0x0, symName: __ZNSt3__116allocator_traitsINS_9allocatorI5OrderEEE7destroyB7v160006IS2_vEEvRS3_PT_, symObjAddr: 0x1C40, symBinAddr: 0x100005AD0, symSize: 0x30 }
  - { offsetInCU: 0x10BA2, offset: 0x10BA2, size: 0x8, addend: 0x0, symName: __ZNSt3__19allocatorI5OrderE7destroyB7v160006EPS1_, symObjAddr: 0x1C70, symBinAddr: 0x100005B00, symSize: 0x10 }
  - { offsetInCU: 0x10BD6, offset: 0x10BD6, size: 0x8, addend: 0x0, symName: __ZNSt3__19allocatorI5OrderE10deallocateB7v160006EPS1_m, symObjAddr: 0x1C80, symBinAddr: 0x100005B10, symSize: 0x40 }
  - { offsetInCU: 0x10C18, offset: 0x10C18, size: 0x8, addend: 0x0, symName: __ZNSt3__117__compressed_pairIP5OrderNS_9allocatorIS1_EEE6secondB7v160006Ev, symObjAddr: 0x1CC0, symBinAddr: 0x100005B50, symSize: 0x20 }
  - { offsetInCU: 0x10C3E, offset: 0x10C3E, size: 0x8, addend: 0x0, symName: __ZNSt3__122__compressed_pair_elemINS_9allocatorI5OrderEELi1ELb1EE5__getB7v160006Ev, symObjAddr: 0x1CE0, symBinAddr: 0x100005B70, symSize: 0x10 }
  - { offsetInCU: 0x10C64, offset: 0x10C64, size: 0x8, addend: 0x0, symName: __ZNKSt3__16vectorI5OrderNS_9allocatorIS1_EEE9__end_capB7v160006Ev, symObjAddr: 0x1CF0, symBinAddr: 0x100005B80, symSize: 0x20 }
  - { offsetInCU: 0x10C8A, offset: 0x10C8A, size: 0x8, addend: 0x0, symName: __ZNKSt3__117__compressed_pairIP5OrderNS_9allocatorIS1_EEE5firstB7v160006Ev, symObjAddr: 0x1D10, symBinAddr: 0x100005BA0, symSize: 0x20 }
  - { offsetInCU: 0x10CB0, offset: 0x10CB0, size: 0x8, addend: 0x0, symName: __ZNKSt3__122__compressed_pair_elemIP5OrderLi0ELb0EE5__getB7v160006Ev, symObjAddr: 0x1D30, symBinAddr: 0x100005BC0, symSize: 0x10 }
  - { offsetInCU: 0x10CD6, offset: 0x10CD6, size: 0x8, addend: 0x0, symName: __ZNSt3__114priority_queueI5OrderNS_6vectorIS1_NS_9allocatorIS1_EEEE15CompareBuyOrderED2Ev, symObjAddr: 0x1D40, symBinAddr: 0x100005BD0, symSize: 0x20 }
  - { offsetInCU: 0x10D03, offset: 0x10D03, size: 0x8, addend: 0x0, symName: __ZNSt3__16vectorI12MarketMakersNS_9allocatorIS1_EEEC2B7v160006ESt16initializer_listIS1_E, symObjAddr: 0x1D60, symBinAddr: 0x100005BF0, symSize: 0x120 }
  - { offsetInCU: 0x10D5F, offset: 0x10D5F, size: 0x8, addend: 0x0, symName: __ZNSt3__117__compressed_pairIP12MarketMakersNS_9allocatorIS1_EEEC1B7v160006IDnNS_18__default_init_tagEEEOT_OT0_, symObjAddr: 0x1E80, symBinAddr: 0x100005D10, symSize: 0x30 }
  - { offsetInCU: 0x10DB6, offset: 0x10DB6, size: 0x8, addend: 0x0, symName: __ZNSt3__16vectorI12MarketMakersNS_9allocatorIS1_EEE16__destroy_vectorC1ERS4_, symObjAddr: 0x1EF0, symBinAddr: 0x100005D80, symSize: 0x30 }
  - { offsetInCU: 0x10DEE, offset: 0x10DEE, size: 0x8, addend: 0x0, symName: __ZNKSt16initializer_listI12MarketMakersE4sizeB7v160006Ev, symObjAddr: 0x1F30, symBinAddr: 0x100005DC0, symSize: 0x20 }
  - { offsetInCU: 0x10E14, offset: 0x10E14, size: 0x8, addend: 0x0, symName: __ZNSt3__16vectorI12MarketMakersNS_9allocatorIS1_EEE11__vallocateB7v160006Em, symObjAddr: 0x1F50, symBinAddr: 0x100005DE0, symSize: 0xA0 }
  - { offsetInCU: 0x10E59, offset: 0x10E59, size: 0x8, addend: 0x0, symName: __ZNSt3__16vectorI12MarketMakersNS_9allocatorIS1_EEE18__construct_at_endIPKS1_Li0EEEvT_S8_m, symObjAddr: 0x1FF0, symBinAddr: 0x100005E80, symSize: 0x90 }
  - { offsetInCU: 0x10ECD, offset: 0x10ECD, size: 0x8, addend: 0x0, symName: __ZNKSt16initializer_listI12MarketMakersE5beginB7v160006Ev, symObjAddr: 0x2080, symBinAddr: 0x100005F10, symSize: 0x20 }
  - { offsetInCU: 0x10EF3, offset: 0x10EF3, size: 0x8, addend: 0x0, symName: __ZNKSt16initializer_listI12MarketMakersE3endB7v160006Ev, symObjAddr: 0x20A0, symBinAddr: 0x100005F30, symSize: 0x20 }
  - { offsetInCU: 0x10F19, offset: 0x10F19, size: 0x8, addend: 0x0, symName: __ZNSt3__128__exception_guard_exceptionsINS_6vectorI12MarketMakersNS_9allocatorIS2_EEE16__destroy_vectorEE10__completeB7v160006Ev, symObjAddr: 0x20C0, symBinAddr: 0x100005F50, symSize: 0x20 }
  - { offsetInCU: 0x10F3F, offset: 0x10F3F, size: 0x8, addend: 0x0, symName: __ZNSt3__128__exception_guard_exceptionsINS_6vectorI12MarketMakersNS_9allocatorIS2_EEE16__destroy_vectorEED1B7v160006Ev, symObjAddr: 0x20E0, symBinAddr: 0x100005F70, symSize: 0x20 }
  - { offsetInCU: 0x10F68, offset: 0x10F68, size: 0x8, addend: 0x0, symName: __ZNSt3__117__compressed_pairIP12MarketMakersNS_9allocatorIS1_EEEC2B7v160006IDnNS_18__default_init_tagEEEOT_OT0_, symObjAddr: 0x2100, symBinAddr: 0x100005F90, symSize: 0x40 }
  - { offsetInCU: 0x10FBF, offset: 0x10FBF, size: 0x8, addend: 0x0, symName: __ZNSt3__122__compressed_pair_elemIP12MarketMakersLi0ELb0EEC2B7v160006IDnvEEOT_, symObjAddr: 0x2140, symBinAddr: 0x100005FD0, symSize: 0x20 }
  - { offsetInCU: 0x11000, offset: 0x11000, size: 0x8, addend: 0x0, symName: __ZNSt3__122__compressed_pair_elemINS_9allocatorI12MarketMakersEELi1ELb1EEC2B7v160006ENS_18__default_init_tagE, symObjAddr: 0x2160, symBinAddr: 0x100005FF0, symSize: 0x20 }
  - { offsetInCU: 0x11034, offset: 0x11034, size: 0x8, addend: 0x0, symName: __ZNSt3__19allocatorI12MarketMakersEC2B7v160006Ev, symObjAddr: 0x2180, symBinAddr: 0x100006010, symSize: 0x20 }
  - { offsetInCU: 0x1105D, offset: 0x1105D, size: 0x8, addend: 0x0, symName: __ZNSt3__116__non_trivial_ifILb1ENS_9allocatorI12MarketMakersEEEC2B7v160006Ev, symObjAddr: 0x21A0, symBinAddr: 0x100006030, symSize: 0x10 }
  - { offsetInCU: 0x11086, offset: 0x11086, size: 0x8, addend: 0x0, symName: __ZNSt3__128__exception_guard_exceptionsINS_6vectorI12MarketMakersNS_9allocatorIS2_EEE16__destroy_vectorEEC1B7v160006ES6_, symObjAddr: 0x21B0, symBinAddr: 0x100006040, symSize: 0x30 }
  - { offsetInCU: 0x110BD, offset: 0x110BD, size: 0x8, addend: 0x0, symName: __ZNSt3__128__exception_guard_exceptionsINS_6vectorI12MarketMakersNS_9allocatorIS2_EEE16__destroy_vectorEEC2B7v160006ES6_, symObjAddr: 0x21E0, symBinAddr: 0x100006070, symSize: 0x20 }
  - { offsetInCU: 0x110F4, offset: 0x110F4, size: 0x8, addend: 0x0, symName: __ZNSt3__16vectorI12MarketMakersNS_9allocatorIS1_EEE16__destroy_vectorC2ERS4_, symObjAddr: 0x2200, symBinAddr: 0x100006090, symSize: 0x20 }
  - { offsetInCU: 0x1112C, offset: 0x1112C, size: 0x8, addend: 0x0, symName: __ZNKSt3__16vectorI12MarketMakersNS_9allocatorIS1_EEE8max_sizeEv, symObjAddr: 0x2220, symBinAddr: 0x1000060B0, symSize: 0x60 }
  - { offsetInCU: 0x11154, offset: 0x11154, size: 0x8, addend: 0x0, symName: __ZNKSt3__16vectorI12MarketMakersNS_9allocatorIS1_EEE20__throw_length_errorB7v160006Ev, symObjAddr: 0x2280, symBinAddr: 0x100006110, symSize: 0x20 }
  - { offsetInCU: 0x1117A, offset: 0x1117A, size: 0x8, addend: 0x0, symName: __ZNSt3__16vectorI12MarketMakersNS_9allocatorIS1_EEE7__allocB7v160006Ev, symObjAddr: 0x22E0, symBinAddr: 0x100006170, symSize: 0x20 }
  - { offsetInCU: 0x111A0, offset: 0x111A0, size: 0x8, addend: 0x0, symName: __ZNSt3__16vectorI12MarketMakersNS_9allocatorIS1_EEE9__end_capB7v160006Ev, symObjAddr: 0x2300, symBinAddr: 0x100006190, symSize: 0x20 }
  - { offsetInCU: 0x111C6, offset: 0x111C6, size: 0x8, addend: 0x0, symName: __ZNKSt3__16vectorI12MarketMakersNS_9allocatorIS1_EEE14__annotate_newB7v160006Em, symObjAddr: 0x2320, symBinAddr: 0x1000061B0, symSize: 0xA0 }
  - { offsetInCU: 0x11205, offset: 0x11205, size: 0x8, addend: 0x0, symName: __ZNSt3__116allocator_traitsINS_9allocatorI12MarketMakersEEE8max_sizeB7v160006IS3_vEEmRKS3_, symObjAddr: 0x23F0, symBinAddr: 0x100006280, symSize: 0x20 }
  - { offsetInCU: 0x11233, offset: 0x11233, size: 0x8, addend: 0x0, symName: __ZNKSt3__16vectorI12MarketMakersNS_9allocatorIS1_EEE7__allocB7v160006Ev, symObjAddr: 0x2410, symBinAddr: 0x1000062A0, symSize: 0x20 }
  - { offsetInCU: 0x11259, offset: 0x11259, size: 0x8, addend: 0x0, symName: __ZNSt3__114numeric_limitsIlE3maxB7v160006Ev, symObjAddr: 0x2430, symBinAddr: 0x1000062C0, symSize: 0x10 }
  - { offsetInCU: 0x11277, offset: 0x11277, size: 0x8, addend: 0x0, symName: __ZNKSt3__16__lessImmEclB7v160006ERKmS3_, symObjAddr: 0x2490, symBinAddr: 0x100006320, symSize: 0x30 }
  - { offsetInCU: 0x112B9, offset: 0x112B9, size: 0x8, addend: 0x0, symName: __ZNKSt3__19allocatorI12MarketMakersE8max_sizeB7v160006Ev, symObjAddr: 0x24C0, symBinAddr: 0x100006350, symSize: 0x20 }
  - { offsetInCU: 0x112DF, offset: 0x112DF, size: 0x8, addend: 0x0, symName: __ZNKSt3__117__compressed_pairIP12MarketMakersNS_9allocatorIS1_EEE6secondB7v160006Ev, symObjAddr: 0x24E0, symBinAddr: 0x100006370, symSize: 0x20 }
  - { offsetInCU: 0x11305, offset: 0x11305, size: 0x8, addend: 0x0, symName: __ZNKSt3__122__compressed_pair_elemINS_9allocatorI12MarketMakersEELi1ELb1EE5__getB7v160006Ev, symObjAddr: 0x2500, symBinAddr: 0x100006390, symSize: 0x10 }
  - { offsetInCU: 0x1132B, offset: 0x1132B, size: 0x8, addend: 0x0, symName: __ZNSt3__123__libcpp_numeric_limitsIlLb1EE3maxB7v160006Ev, symObjAddr: 0x2510, symBinAddr: 0x1000063A0, symSize: 0x10 }
  - { offsetInCU: 0x1133F, offset: 0x1133F, size: 0x8, addend: 0x0, symName: __ZNSt12length_errorC1B7v160006EPKc, symObjAddr: 0x2590, symBinAddr: 0x100006420, symSize: 0x30 }
  - { offsetInCU: 0x11376, offset: 0x11376, size: 0x8, addend: 0x0, symName: __ZNSt12length_errorC2B7v160006EPKc, symObjAddr: 0x25C0, symBinAddr: 0x100006450, symSize: 0x40 }
  - { offsetInCU: 0x113AD, offset: 0x113AD, size: 0x8, addend: 0x0, symName: __ZNSt3__19allocatorI12MarketMakersE8allocateB7v160006Em, symObjAddr: 0x2600, symBinAddr: 0x100006490, symSize: 0x50 }
  - { offsetInCU: 0x113E1, offset: 0x113E1, size: 0x8, addend: 0x0, symName: __ZNSt3__117__compressed_pairIP12MarketMakersNS_9allocatorIS1_EEE6secondB7v160006Ev, symObjAddr: 0x26D0, symBinAddr: 0x100006560, symSize: 0x20 }
  - { offsetInCU: 0x11407, offset: 0x11407, size: 0x8, addend: 0x0, symName: __ZNSt3__122__compressed_pair_elemINS_9allocatorI12MarketMakersEELi1ELb1EE5__getB7v160006Ev, symObjAddr: 0x26F0, symBinAddr: 0x100006580, symSize: 0x10 }
  - { offsetInCU: 0x1142D, offset: 0x1142D, size: 0x8, addend: 0x0, symName: __ZNSt3__117__compressed_pairIP12MarketMakersNS_9allocatorIS1_EEE5firstB7v160006Ev, symObjAddr: 0x2700, symBinAddr: 0x100006590, symSize: 0x20 }
  - { offsetInCU: 0x11453, offset: 0x11453, size: 0x8, addend: 0x0, symName: __ZNSt3__122__compressed_pair_elemIP12MarketMakersLi0ELb0EE5__getB7v160006Ev, symObjAddr: 0x2720, symBinAddr: 0x1000065B0, symSize: 0x10 }
  - { offsetInCU: 0x11479, offset: 0x11479, size: 0x8, addend: 0x0, symName: __ZNKSt3__16vectorI12MarketMakersNS_9allocatorIS1_EEE31__annotate_contiguous_containerB7v160006EPKvS6_S6_S6_, symObjAddr: 0x2730, symBinAddr: 0x1000065C0, symSize: 0x20 }
  - { offsetInCU: 0x114CB, offset: 0x114CB, size: 0x8, addend: 0x0, symName: __ZNKSt3__16vectorI12MarketMakersNS_9allocatorIS1_EEE4dataB7v160006Ev, symObjAddr: 0x2750, symBinAddr: 0x1000065E0, symSize: 0x20 }
  - { offsetInCU: 0x114F1, offset: 0x114F1, size: 0x8, addend: 0x0, symName: __ZNKSt3__16vectorI12MarketMakersNS_9allocatorIS1_EEE8capacityB7v160006Ev, symObjAddr: 0x2770, symBinAddr: 0x100006600, symSize: 0x40 }
  - { offsetInCU: 0x11517, offset: 0x11517, size: 0x8, addend: 0x0, symName: __ZNKSt3__16vectorI12MarketMakersNS_9allocatorIS1_EEE9__end_capB7v160006Ev, symObjAddr: 0x27C0, symBinAddr: 0x100006650, symSize: 0x20 }
  - { offsetInCU: 0x1153D, offset: 0x1153D, size: 0x8, addend: 0x0, symName: __ZNKSt3__117__compressed_pairIP12MarketMakersNS_9allocatorIS1_EEE5firstB7v160006Ev, symObjAddr: 0x27E0, symBinAddr: 0x100006670, symSize: 0x20 }
  - { offsetInCU: 0x11563, offset: 0x11563, size: 0x8, addend: 0x0, symName: __ZNKSt3__122__compressed_pair_elemIP12MarketMakersLi0ELb0EE5__getB7v160006Ev, symObjAddr: 0x2800, symBinAddr: 0x100006690, symSize: 0x10 }
  - { offsetInCU: 0x115A2, offset: 0x115A2, size: 0x8, addend: 0x0, symName: __ZNSt3__16vectorI12MarketMakersNS_9allocatorIS1_EEE21_ConstructTransactionC1B7v160006ERS4_m, symObjAddr: 0x2810, symBinAddr: 0x1000066A0, symSize: 0x30 }
  - { offsetInCU: 0x115E9, offset: 0x115E9, size: 0x8, addend: 0x0, symName: __ZNSt3__16vectorI12MarketMakersNS_9allocatorIS1_EEE21_ConstructTransactionD1B7v160006Ev, symObjAddr: 0x2870, symBinAddr: 0x100006700, symSize: 0x20 }
  - { offsetInCU: 0x11612, offset: 0x11612, size: 0x8, addend: 0x0, symName: __ZNSt3__16vectorI12MarketMakersNS_9allocatorIS1_EEE21_ConstructTransactionC2B7v160006ERS4_m, symObjAddr: 0x2890, symBinAddr: 0x100006720, symSize: 0x40 }
  - { offsetInCU: 0x1167C, offset: 0x1167C, size: 0x8, addend: 0x0, symName: __ZNKSt3__114__copy_trivialclB7v160006IK12MarketMakersS2_Li0EEENS_4pairIPT_PT0_EES6_S6_S8_, symObjAddr: 0x2A90, symBinAddr: 0x100006920, symSize: 0x40 }
  - { offsetInCU: 0x11702, offset: 0x11702, size: 0x8, addend: 0x0, symName: __ZNSt3__14pairIPK12MarketMakersS3_EC1B7v160006IS3_S3_LPv0EEEOT_OT0_, symObjAddr: 0x2BE0, symBinAddr: 0x100006A70, symSize: 0x30 }
  - { offsetInCU: 0x1175F, offset: 0x1175F, size: 0x8, addend: 0x0, symName: __ZNSt3__14pairIPK12MarketMakersS3_EC2B7v160006IS3_S3_LPv0EEEOT_OT0_, symObjAddr: 0x2C10, symBinAddr: 0x100006AA0, symSize: 0x30 }
  - { offsetInCU: 0x117BC, offset: 0x117BC, size: 0x8, addend: 0x0, symName: __ZNSt3__118__unwrap_iter_implIPK12MarketMakersLb1EE8__unwrapB7v160006ES3_, symObjAddr: 0x2C40, symBinAddr: 0x100006AD0, symSize: 0x20 }
  - { offsetInCU: 0x117E9, offset: 0x117E9, size: 0x8, addend: 0x0, symName: __ZNSt3__14pairIPK12MarketMakersPS1_EC1B7v160006IRS3_S4_LPv0EEEOT_OT0_, symObjAddr: 0x2D30, symBinAddr: 0x100006BC0, symSize: 0x30 }
  - { offsetInCU: 0x11846, offset: 0x11846, size: 0x8, addend: 0x0, symName: __ZNSt3__14pairIPK12MarketMakersPS1_EC2B7v160006IRS3_S4_LPv0EEEOT_OT0_, symObjAddr: 0x2D60, symBinAddr: 0x100006BF0, symSize: 0x30 }
  - { offsetInCU: 0x118A3, offset: 0x118A3, size: 0x8, addend: 0x0, symName: __ZNSt3__118__unwrap_iter_implIP12MarketMakersLb1EE8__unwrapB7v160006ES2_, symObjAddr: 0x2D90, symBinAddr: 0x100006C20, symSize: 0x20 }
  - { offsetInCU: 0x118C6, offset: 0x118C6, size: 0x8, addend: 0x0, symName: __ZNSt3__14pairIPK12MarketMakersPS1_EC1B7v160006IS3_S4_LPv0EEEOT_OT0_, symObjAddr: 0x2DB0, symBinAddr: 0x100006C40, symSize: 0x30 }
  - { offsetInCU: 0x11923, offset: 0x11923, size: 0x8, addend: 0x0, symName: __ZNSt3__14pairIPK12MarketMakersPS1_EC2B7v160006IS3_S4_LPv0EEEOT_OT0_, symObjAddr: 0x2DE0, symBinAddr: 0x100006C70, symSize: 0x30 }
  - { offsetInCU: 0x11980, offset: 0x11980, size: 0x8, addend: 0x0, symName: __ZNSt3__118__unwrap_iter_implIPK12MarketMakersLb1EE8__rewrapB7v160006ES3_S3_, symObjAddr: 0x2E50, symBinAddr: 0x100006CE0, symSize: 0x60 }
  - { offsetInCU: 0x119B1, offset: 0x119B1, size: 0x8, addend: 0x0, symName: __ZNSt3__118__unwrap_iter_implIP12MarketMakersLb1EE8__rewrapB7v160006ES2_S2_, symObjAddr: 0x2EB0, symBinAddr: 0x100006D40, symSize: 0x60 }
  - { offsetInCU: 0x119E2, offset: 0x119E2, size: 0x8, addend: 0x0, symName: __ZNSt3__16vectorI12MarketMakersNS_9allocatorIS1_EEE21_ConstructTransactionD2B7v160006Ev, symObjAddr: 0x2F10, symBinAddr: 0x100006DA0, symSize: 0x20 }
  - { offsetInCU: 0x11A0B, offset: 0x11A0B, size: 0x8, addend: 0x0, symName: __ZNSt3__128__exception_guard_exceptionsINS_6vectorI12MarketMakersNS_9allocatorIS2_EEE16__destroy_vectorEED2B7v160006Ev, symObjAddr: 0x2F30, symBinAddr: 0x100006DC0, symSize: 0x40 }
  - { offsetInCU: 0x11A34, offset: 0x11A34, size: 0x8, addend: 0x0, symName: __ZNSt3__16vectorI12MarketMakersNS_9allocatorIS1_EEE16__destroy_vectorclB7v160006Ev, symObjAddr: 0x2F70, symBinAddr: 0x100006E00, symSize: 0x90 }
  - { offsetInCU: 0x11A5A, offset: 0x11A5A, size: 0x8, addend: 0x0, symName: __ZNKSt3__16vectorI12MarketMakersNS_9allocatorIS1_EEE17__annotate_deleteB7v160006Ev, symObjAddr: 0x3000, symBinAddr: 0x100006E90, symSize: 0xB0 }
  - { offsetInCU: 0x11A80, offset: 0x11A80, size: 0x8, addend: 0x0, symName: __ZNSt3__16vectorI12MarketMakersNS_9allocatorIS1_EEE7__clearB7v160006Ev, symObjAddr: 0x30C0, symBinAddr: 0x100006F50, symSize: 0x20 }
  - { offsetInCU: 0x11AA6, offset: 0x11AA6, size: 0x8, addend: 0x0, symName: __ZNSt3__116allocator_traitsINS_9allocatorI12MarketMakersEEE10deallocateB7v160006ERS3_PS2_m, symObjAddr: 0x30E0, symBinAddr: 0x100006F70, symSize: 0x30 }
  - { offsetInCU: 0x11AE8, offset: 0x11AE8, size: 0x8, addend: 0x0, symName: __ZNKSt3__16vectorI12MarketMakersNS_9allocatorIS1_EEE4sizeB7v160006Ev, symObjAddr: 0x3110, symBinAddr: 0x100006FA0, symSize: 0x30 }
  - { offsetInCU: 0x11B0E, offset: 0x11B0E, size: 0x8, addend: 0x0, symName: __ZNSt3__16vectorI12MarketMakersNS_9allocatorIS1_EEE22__base_destruct_at_endB7v160006EPS1_, symObjAddr: 0x3140, symBinAddr: 0x100006FD0, symSize: 0x80 }
  - { offsetInCU: 0x11B53, offset: 0x11B53, size: 0x8, addend: 0x0, symName: __ZNSt3__116allocator_traitsINS_9allocatorI12MarketMakersEEE7destroyB7v160006IS2_vEEvRS3_PT_, symObjAddr: 0x31C0, symBinAddr: 0x100007050, symSize: 0x30 }
  - { offsetInCU: 0x11B90, offset: 0x11B90, size: 0x8, addend: 0x0, symName: __ZNSt3__19allocatorI12MarketMakersE7destroyB7v160006EPS1_, symObjAddr: 0x31F0, symBinAddr: 0x100007080, symSize: 0x10 }
  - { offsetInCU: 0x11BC4, offset: 0x11BC4, size: 0x8, addend: 0x0, symName: __ZNSt3__19allocatorI12MarketMakersE10deallocateB7v160006EPS1_m, symObjAddr: 0x3200, symBinAddr: 0x100007090, symSize: 0x50 }
  - { offsetInCU: 0x11C06, offset: 0x11C06, size: 0x8, addend: 0x0, symName: __ZNSt3__16vectorI12MarketMakersNS_9allocatorIS1_EEED2B7v160006Ev, symObjAddr: 0x3250, symBinAddr: 0x1000070E0, symSize: 0x3A }
  - { offsetInCU: 0x32AB, offset: 0x14FE2, size: 0x8, addend: 0x0, symName: __ZNSt3__16chronomiB7v160006IxNS_5ratioILl1ELl1000000000EEExS3_EENS_11common_typeIJNS0_8durationIT_T0_EENS5_IT1_T2_EEEE4typeERKS8_RKSB_, symObjAddr: 0x2620, symBinAddr: 0x100009700, symSize: 0x70 }
  - { offsetInCU: 0x3C68, offset: 0x1599F, size: 0x8, addend: 0x0, symName: __ZNSt3__16chrono13duration_castB7v160006INS0_8durationIxNS_5ratioILl1ELl1EEEEExNS3_ILl1ELl1000000000EEEEENS_9enable_ifIXsr13__is_durationIT_EE5valueES8_E4typeERKNS2_IT0_T1_EE, symObjAddr: 0xC30, symBinAddr: 0x100007D50, symSize: 0x30 }
  - { offsetInCU: 0x3CAF, offset: 0x159E6, size: 0x8, addend: 0x0, symName: __ZNSt3__16chronomiB7v160006INS0_12steady_clockENS0_8durationIxNS_5ratioILl1ELl1000000000EEEEES6_EENS_11common_typeIJT0_T1_EE4typeERKNS0_10time_pointIT_S8_EERKNSC_ISD_S9_EE, symObjAddr: 0xC60, symBinAddr: 0x100007D80, symSize: 0x50 }
  - { offsetInCU: 0x3D04, offset: 0x15A3B, size: 0x8, addend: 0x0, symName: __ZNSt3__16chronogtB7v160006IxNS_5ratioILl1ELl1000000000EEExNS2_ILl1ELl1EEEEEbRKNS0_8durationIT_T0_EERKNS5_IT1_T2_EE, symObjAddr: 0x1F90, symBinAddr: 0x1000090B0, symSize: 0x30 }
  - { offsetInCU: 0x3D65, offset: 0x15A9C, size: 0x8, addend: 0x0, symName: __ZNSt3__16chronoltB7v160006IxNS_5ratioILl1ELl1EEExNS2_ILl1ELl1000000000EEEEEbRKNS0_8durationIT_T0_EERKNS5_IT1_T2_EE, symObjAddr: 0x28D0, symBinAddr: 0x1000099B0, symSize: 0x30 }
  - { offsetInCU: 0x3DC6, offset: 0x15AFD, size: 0x8, addend: 0x0, symName: __ZNSt3__16chrono13duration_castB7v160006INS0_8durationIxNS_5ratioILl1ELl1000000000EEEEExNS3_ILl1ELl1EEEEENS_9enable_ifIXsr13__is_durationIT_EE5valueES8_E4typeERKNS2_IT0_T1_EE, symObjAddr: 0x29E0, symBinAddr: 0x100009AC0, symSize: 0x30 }
  - { offsetInCU: 0x3E0D, offset: 0x15B44, size: 0x8, addend: 0x0, symName: __ZNSt3__16chronoltB7v160006INS0_12steady_clockENS0_8durationIxNS_5ratioILl1ELl1000000000EEEEES6_EEbRKNS0_10time_pointIT_T0_EERKNS7_IS8_T1_EE, symObjAddr: 0x51E0, symBinAddr: 0x10000C1A0, symSize: 0x50 }
  - { offsetInCU: 0x3E62, offset: 0x15B99, size: 0x8, addend: 0x0, symName: __ZNSt3__16chronoltB7v160006IxNS_5ratioILl1ELl1000000000EEExS3_EEbRKNS0_8durationIT_T0_EERKNS4_IT1_T2_EE, symObjAddr: 0x5230, symBinAddr: 0x10000C1F0, symSize: 0x30 }
  - { offsetInCU: 0x3F00, offset: 0x15C37, size: 0x8, addend: 0x0, symName: __ZNSt3__16chronogtB7v160006IxNS_5ratioILl1ELl1000EEExS3_EEbRKNS0_8durationIT_T0_EERKNS4_IT1_T2_EE, symObjAddr: 0x8CC0, symBinAddr: 0x10000F3F0, symSize: 0x30 }
  - { offsetInCU: 0x3F61, offset: 0x15C98, size: 0x8, addend: 0x0, symName: __ZNSt3__16chronoltB7v160006IxNS_5ratioILl1ELl1000EEEeNS2_ILl1ELl1EEEEEbRKNS0_8durationIT_T0_EERKNS5_IT1_T2_EE, symObjAddr: 0x8D30, symBinAddr: 0x10000F460, symSize: 0x30 }
  - { offsetInCU: 0x3FC2, offset: 0x15CF9, size: 0x8, addend: 0x0, symName: __ZNSt3__16chrono13duration_castB7v160006INS0_8durationIxNS_5ratioILl1ELl1000000000EEEEExNS3_ILl1ELl1000EEEEENS_9enable_ifIXsr13__is_durationIT_EE5valueES8_E4typeERKNS2_IT0_T1_EE, symObjAddr: 0x8D60, symBinAddr: 0x10000F490, symSize: 0x30 }
  - { offsetInCU: 0x4009, offset: 0x15D40, size: 0x8, addend: 0x0, symName: __ZNSt3__16chronoltB7v160006IxNS_5ratioILl1ELl1000000000EEExNS2_ILl1ELl1000EEEEEbRKNS0_8durationIT_T0_EERKNS5_IT1_T2_EE, symObjAddr: 0x8D90, symBinAddr: 0x10000F4C0, symSize: 0x30 }
  - { offsetInCU: 0x406A, offset: 0x15DA1, size: 0x8, addend: 0x0, symName: __ZNSt3__16chronoltB7v160006IxNS_5ratioILl1ELl1000EEExS3_EEbRKNS0_8durationIT_T0_EERKNS4_IT1_T2_EE, symObjAddr: 0x8E20, symBinAddr: 0x10000F550, symSize: 0x30 }
  - { offsetInCU: 0x4148, offset: 0x15E7F, size: 0x8, addend: 0x0, symName: __ZNSt3__16chrono13duration_castB7v160006INS0_8durationIeNS_5ratioILl1ELl1000EEEEExS4_EENS_9enable_ifIXsr13__is_durationIT_EE5valueES7_E4typeERKNS2_IT0_T1_EE, symObjAddr: 0x9040, symBinAddr: 0x10000F770, symSize: 0x30 }
  - { offsetInCU: 0x41DA, offset: 0x15F11, size: 0x8, addend: 0x0, symName: __ZNSt3__16chrono13duration_castB7v160006INS0_8durationIeNS_5ratioILl1ELl1000EEEEEeNS3_ILl1ELl1EEEEENS_9enable_ifIXsr13__is_durationIT_EE5valueES8_E4typeERKNS2_IT0_T1_EE, symObjAddr: 0x9140, symBinAddr: 0x10000F870, symSize: 0x30 }
  - { offsetInCU: 0xBE50, offset: 0x1DB87, size: 0x8, addend: 0x0, symName: __ZNSt3__117__floyd_sift_downB7v160006INS_17_ClassicAlgPolicyER15CompareBuyOrderNS_11__wrap_iterIP5OrderEEEET1_S8_OT0_NS_15iterator_traitsIS8_E15difference_typeE, symObjAddr: 0x4D40, symBinAddr: 0x10000BD00, symSize: 0x150 }
  - { offsetInCU: 0xBF1A, offset: 0x1DC51, size: 0x8, addend: 0x0, symName: __ZNSt3__117__floyd_sift_downB7v160006INS_17_ClassicAlgPolicyER16CompareSellOrderNS_11__wrap_iterIP5OrderEEEET1_S8_OT0_NS_15iterator_traitsIS8_E15difference_typeE, symObjAddr: 0x5810, symBinAddr: 0x10000C5D0, symSize: 0x150 }
  - { offsetInCU: 0x12403, offset: 0x2413A, size: 0x8, addend: 0x0, symName: __ZNSt3__124__put_character_sequenceB7v160006IcNS_11char_traitsIcEEEERNS_13basic_ostreamIT_T0_EES7_PKS4_m, symObjAddr: 0x101A0, symBinAddr: 0x1000165E0, symSize: 0x1F0 }
  - { offsetInCU: 0x14602, offset: 0x26339, size: 0x8, addend: 0x0, symName: __ZNSt3__111this_thread9sleep_forB7v160006IxNS_5ratioILl1ELl1000EEEEEvRKNS_6chrono8durationIT_T0_EE, symObjAddr: 0xEA0, symBinAddr: 0x100007FC0, symSize: 0xD0 }
  - { offsetInCU: 0x1468C, offset: 0x263C3, size: 0x8, addend: 0x0, symName: __ZNSt3__13refB7v160006INS_6atomicIbEEEENS_17reference_wrapperIT_EERS4_, symObjAddr: 0x1620, symBinAddr: 0x100008740, symSize: 0x30 }
  - { offsetInCU: 0x146C1, offset: 0x263F8, size: 0x8, addend: 0x0, symName: __ZNSt3__111make_uniqueB7v160006I4BotsJdiiEEENS_11__unique_ifIT_E15__unique_singleEDpOT0_, symObjAddr: 0x1730, symBinAddr: 0x100008850, symSize: 0x90 }
  - { offsetInCU: 0x1472B, offset: 0x26462, size: 0x8, addend: 0x0, symName: __ZNSt3__13refB7v160006I6MarketEENS_17reference_wrapperIT_EERS3_, symObjAddr: 0x18E0, symBinAddr: 0x100008A00, symSize: 0x30 }
  - { offsetInCU: 0x14760, offset: 0x26497, size: 0x8, addend: 0x0, symName: __ZNSt3__13refB7v160006INS_5mutexEEENS_17reference_wrapperIT_EERS3_, symObjAddr: 0x1910, symBinAddr: 0x100008A30, symSize: 0x30 }
  - { offsetInCU: 0x14795, offset: 0x264CC, size: 0x8, addend: 0x0, symName: __ZNSt3__1neB7v160006IPNS_6threadEEEbRKNS_11__wrap_iterIT_EES7_, symObjAddr: 0x1A30, symBinAddr: 0x100008B50, symSize: 0x30 }
  - { offsetInCU: 0x15006, offset: 0x26D3D, size: 0x8, addend: 0x0, symName: __ZNSt3__1lsB7v160006INS_11char_traitsIcEEEERNS_13basic_ostreamIcT_EES6_PKc, symObjAddr: 0x1C30, symBinAddr: 0x100008D50, symSize: 0x40 }
  - { offsetInCU: 0x1504C, offset: 0x26D83, size: 0x8, addend: 0x0, symName: __ZNSt3__14endlB7v160006IcNS_11char_traitsIcEEEERNS_13basic_ostreamIT_T0_EES7_, symObjAddr: 0x1C90, symBinAddr: 0x100008DB0, symSize: 0x50 }
  - { offsetInCU: 0x1508C, offset: 0x26DC3, size: 0x8, addend: 0x0, symName: __ZNSt3__1neB7v160006IP13ExecutedTradeEEbRKNS_11__wrap_iterIT_EES7_, symObjAddr: 0x1D40, symBinAddr: 0x100008E60, symSize: 0x30 }
  - { offsetInCU: 0x150DA, offset: 0x26E11, size: 0x8, addend: 0x0, symName: __ZNSt3__119__debug_db_insert_cB7v160006INS_12basic_stringIcNS_11char_traitsIcEENS_9allocatorIcEEEEEEvPT_, symObjAddr: 0x2490, symBinAddr: 0x100009580, symSize: 0x10 }
  - { offsetInCU: 0x1510B, offset: 0x26E42, size: 0x8, addend: 0x0, symName: __ZNSt3__118__constexpr_strlenB7v160006EPKc, symObjAddr: 0x2530, symBinAddr: 0x100009620, symSize: 0x20 }
  - { offsetInCU: 0x15137, offset: 0x26E6E, size: 0x8, addend: 0x0, symName: __ZNSt3__1eqB7v160006IPNS_6threadEEEbRKNS_11__wrap_iterIT_EES7_, symObjAddr: 0x2790, symBinAddr: 0x100009870, symSize: 0x40 }
  - { offsetInCU: 0x1517A, offset: 0x26EB1, size: 0x8, addend: 0x0, symName: __ZNSt3__1eqB7v160006IP13ExecutedTradeEEbRKNS_11__wrap_iterIT_EES7_, symObjAddr: 0x27F0, symBinAddr: 0x1000098D0, symSize: 0x40 }
  - { offsetInCU: 0x151BD, offset: 0x26EF4, size: 0x8, addend: 0x0, symName: __ZNSt3__115__debug_db_swapB7v160006INS_6vectorI12MarketMakersNS_9allocatorIS2_EEEEEEvPT_S7_, symObjAddr: 0x2BC0, symBinAddr: 0x100009C70, symSize: 0x10 }
  - { offsetInCU: 0x151FC, offset: 0x26F33, size: 0x8, addend: 0x0, symName: __ZNSt3__119__debug_db_insert_cB7v160006INS_6vectorI5OrderNS_9allocatorIS2_EEEEEEvPT_, symObjAddr: 0x2D90, symBinAddr: 0x100009DA0, symSize: 0x10 }
  - { offsetInCU: 0x1522D, offset: 0x26F64, size: 0x8, addend: 0x0, symName: __ZNSt3__119__debug_db_insert_cB7v160006INS_6vectorI13ExecutedTradeNS_9allocatorIS2_EEEEEEvPT_, symObjAddr: 0x2F00, symBinAddr: 0x100009F10, symSize: 0x10 }
  - { offsetInCU: 0x1525E, offset: 0x26F95, size: 0x8, addend: 0x0, symName: __ZNSt3__119__debug_db_insert_cB7v160006INS_13unordered_mapIi4BotsNS_4hashIiEENS_8equal_toIiEENS_9allocatorINS_4pairIKiS2_EEEEEEEEvPT_, symObjAddr: 0x3020, symBinAddr: 0x10000A030, symSize: 0x10 }
  - { offsetInCU: 0x1528F, offset: 0x26FC6, size: 0x8, addend: 0x0, symName: __ZNSt3__113__countl_zeroB7v160006IjEEiT_, symObjAddr: 0x3B00, symBinAddr: 0x10000AB10, symSize: 0x40 }
  - { offsetInCU: 0x1532A, offset: 0x27061, size: 0x8, addend: 0x0, symName: __ZNSt3__112__libcpp_clzB7v160006Ej, symObjAddr: 0x3FA0, symBinAddr: 0x10000AFB0, symSize: 0x20 }
  - { offsetInCU: 0x15356, offset: 0x2708D, size: 0x8, addend: 0x0, symName: __ZNSt3__118generate_canonicalB7v160006IdLm53ENS_26linear_congruential_engineIjLj48271ELj0ELj2147483647EEEEET_RT1_, symObjAddr: 0x4110, symBinAddr: 0x10000B120, symSize: 0x100 }
  - { offsetInCU: 0x1541E, offset: 0x27155, size: 0x8, addend: 0x0, symName: __ZNSt3__1eqB7v160006ERKNS_19__hash_map_iteratorINS_15__hash_iteratorIPNS_11__hash_nodeINS_17__hash_value_typeIi4BotsEEPvEEEEEESC_, symObjAddr: 0x42A0, symBinAddr: 0x10000B2B0, symSize: 0x30 }
  - { offsetInCU: 0x1545B, offset: 0x27192, size: 0x8, addend: 0x0, symName: __ZNSt3__120__throw_out_of_rangeB7v160006EPKc, symObjAddr: 0x4300, symBinAddr: 0x10000B310, symSize: 0x70 }
  - { offsetInCU: 0x15486, offset: 0x271BD, size: 0x8, addend: 0x0, symName: __ZNSt3__116__constrain_hashB7v160006Emm, symObjAddr: 0x45D0, symBinAddr: 0x10000B5E0, symSize: 0x80 }
  - { offsetInCU: 0x154C0, offset: 0x271F7, size: 0x8, addend: 0x0, symName: __ZNSt3__1eqB7v160006ERKNS_15__hash_iteratorIPNS_11__hash_nodeINS_17__hash_value_typeIi4BotsEEPvEEEESA_, symObjAddr: 0x4960, symBinAddr: 0x10000B930, symSize: 0x30 }
  - { offsetInCU: 0x15563, offset: 0x2729A, size: 0x8, addend: 0x0, symName: __ZNSt3__18pop_heapB7v160006INS_11__wrap_iterIP5OrderEE15CompareBuyOrderEEvT_S6_T0_, symObjAddr: 0x4A60, symBinAddr: 0x10000BA20, symSize: 0x50 }
  - { offsetInCU: 0x155C7, offset: 0x272FE, size: 0x8, addend: 0x0, symName: __ZNSt3__1miB7v160006IP5OrderS2_EEDTmicldtfp_4baseEcldtfp0_4baseEERKNS_11__wrap_iterIT_EERKNS4_IT0_EE, symObjAddr: 0x4B40, symBinAddr: 0x10000BB00, symSize: 0x40 }
  - { offsetInCU: 0x15613, offset: 0x2734A, size: 0x8, addend: 0x0, symName: __ZNSt3__110__pop_heapB7v160006INS_17_ClassicAlgPolicyE15CompareBuyOrderNS_11__wrap_iterIP5OrderEEEEvT1_S7_RT0_NS_15iterator_traitsIS7_E15difference_typeE, symObjAddr: 0x4B80, symBinAddr: 0x10000BB40, symSize: 0x180 }
  - { offsetInCU: 0x15796, offset: 0x274CD, size: 0x8, addend: 0x0, symName: __ZNSt3__1eqB7v160006IP5OrderEEbRKNS_11__wrap_iterIT_EES7_, symObjAddr: 0x4EB0, symBinAddr: 0x10000BE70, symSize: 0x40 }
  - { offsetInCU: 0x157D9, offset: 0x27510, size: 0x8, addend: 0x0, symName: __ZNSt3__19__sift_upB7v160006INS_17_ClassicAlgPolicyER15CompareBuyOrderNS_11__wrap_iterIP5OrderEEEEvT1_S8_OT0_NS_15iterator_traitsIS8_E15difference_typeE, symObjAddr: 0x4F30, symBinAddr: 0x10000BEF0, symSize: 0x190 }
  - { offsetInCU: 0x1588C, offset: 0x275C3, size: 0x8, addend: 0x0, symName: __ZNSt3__18pop_heapB7v160006INS_11__wrap_iterIP5OrderEE16CompareSellOrderEEvT_S6_T0_, symObjAddr: 0x5640, symBinAddr: 0x10000C400, symSize: 0x50 }
  - { offsetInCU: 0x158F0, offset: 0x27627, size: 0x8, addend: 0x0, symName: __ZNSt3__110__pop_heapB7v160006INS_17_ClassicAlgPolicyE16CompareSellOrderNS_11__wrap_iterIP5OrderEEEEvT1_S7_RT0_NS_15iterator_traitsIS7_E15difference_typeE, symObjAddr: 0x5690, symBinAddr: 0x10000C450, symSize: 0x180 }
  - { offsetInCU: 0x159A3, offset: 0x276DA, size: 0x8, addend: 0x0, symName: __ZNSt3__19__sift_upB7v160006INS_17_ClassicAlgPolicyER16CompareSellOrderNS_11__wrap_iterIP5OrderEEEEvT1_S8_OT0_NS_15iterator_traitsIS8_E15difference_typeE, symObjAddr: 0x5960, symBinAddr: 0x10000C720, symSize: 0x190 }
  - { offsetInCU: 0x15A56, offset: 0x2778D, size: 0x8, addend: 0x0, symName: __ZNSt3__19push_heapB7v160006INS_11__wrap_iterIP5OrderEE15CompareBuyOrderEEvT_S6_T0_, symObjAddr: 0x5C10, symBinAddr: 0x10000C9D0, symSize: 0x40 }
  - { offsetInCU: 0x15AAC, offset: 0x277E3, size: 0x8, addend: 0x0, symName: __ZNSt3__13maxB7v160006ImEERKT_S3_S3_, symObjAddr: 0x61D0, symBinAddr: 0x10000CF90, symSize: 0x30 }
  - { offsetInCU: 0x15AEF, offset: 0x27826, size: 0x8, addend: 0x0, symName: __ZNSt3__13maxB7v160006ImNS_6__lessImmEEEERKT_S5_S5_T0_, symObjAddr: 0x6440, symBinAddr: 0x10000D050, symSize: 0x50 }
  - { offsetInCU: 0x15B49, offset: 0x27880, size: 0x8, addend: 0x0, symName: __ZNSt3__119__allocate_at_leastB7v160006INS_9allocatorI5OrderEEEENS_19__allocation_resultINS_16allocator_traitsIT_E7pointerEEERS6_m, symObjAddr: 0x6590, symBinAddr: 0x10000D1A0, symSize: 0x40 }
  - { offsetInCU: 0x15B8C, offset: 0x278C3, size: 0x8, addend: 0x0, symName: __ZNSt3__142__uninitialized_allocator_move_if_noexceptB7v160006INS_9allocatorI5OrderEENS_16reverse_iteratorIPS2_EES6_S2_vEET1_RT_T0_SA_S7_, symObjAddr: 0x6850, symBinAddr: 0x10000D330, symSize: 0x70 }
  - { offsetInCU: 0x15C08, offset: 0x2793F, size: 0x8, addend: 0x0, symName: __ZNSt3__14swapB7v160006IP5OrderEENS_9enable_ifIXaasr21is_move_constructibleIT_EE5valuesr18is_move_assignableIS4_EE5valueEvE4typeERS4_S7_, symObjAddr: 0x6910, symBinAddr: 0x10000D3F0, symSize: 0x40 }
  - { offsetInCU: 0x15C59, offset: 0x27990, size: 0x8, addend: 0x0, symName: __ZNSt3__125__debug_db_invalidate_allB7v160006INS_6vectorI5OrderNS_9allocatorIS2_EEEEEEvPT_, symObjAddr: 0x6A00, symBinAddr: 0x10000D4E0, symSize: 0x10 }
  - { offsetInCU: 0x15C8A, offset: 0x279C1, size: 0x8, addend: 0x0, symName: __ZNSt3__14moveB7v160006INS_16reverse_iteratorIP5OrderEES4_EET0_T_S6_S5_, symObjAddr: 0x6A10, symBinAddr: 0x10000D4F0, symSize: 0x80 }
  - { offsetInCU: 0x15CE4, offset: 0x27A1B, size: 0x8, addend: 0x0, symName: __ZNSt3__16__moveB7v160006INS_17_ClassicAlgPolicyENS_16reverse_iteratorIP5OrderEES5_S5_EENS_4pairIT0_T2_EES7_T1_S8_, symObjAddr: 0x6A90, symBinAddr: 0x10000D570, symSize: 0x90 }
  - { offsetInCU: 0x15D50, offset: 0x27A87, size: 0x8, addend: 0x0, symName: __ZNSt3__123__dispatch_copy_or_moveB7v160006INS_17_ClassicAlgPolicyENS_11__move_loopIS1_EENS_14__move_trivialENS_16reverse_iteratorIP5OrderEES8_S8_EENS_4pairIT2_T4_EESA_T3_SB_, symObjAddr: 0x6B20, symBinAddr: 0x10000D600, symSize: 0x90 }
  - { offsetInCU: 0x15DCE, offset: 0x27B05, size: 0x8, addend: 0x0, symName: __ZNSt3__121__unwrap_and_dispatchB7v160006INS_10__overloadINS_11__move_loopINS_17_ClassicAlgPolicyEEENS_14__move_trivialEEENS_16reverse_iteratorIP5OrderEESA_SA_Li0EEENS_4pairIT0_T2_EESC_T1_SD_, symObjAddr: 0x6BB0, symBinAddr: 0x10000D690, symSize: 0x210 }
  - { offsetInCU: 0x15E5D, offset: 0x27B94, size: 0x8, addend: 0x0, symName: __ZNSt3__114__unwrap_rangeB7v160006INS_16reverse_iteratorIP5OrderEES4_EENS_4pairIT0_S6_EET_S8_, symObjAddr: 0x6DC0, symBinAddr: 0x10000D8A0, symSize: 0x90 }
  - { offsetInCU: 0x1600E, offset: 0x27D45, size: 0x8, addend: 0x0, symName: __ZNSt3__113__unwrap_iterB7v160006INS_16reverse_iteratorIP5OrderEENS_18__unwrap_iter_implIS4_Lb0EEELi0EEEDTclsrT0_8__unwrapclsr3stdE7declvalIT_EEEES8_, symObjAddr: 0x6F00, symBinAddr: 0x10000D9E0, symSize: 0x40 }
  - { offsetInCU: 0x16052, offset: 0x27D89, size: 0x8, addend: 0x0, symName: __ZNSt3__19make_pairB7v160006INS_16reverse_iteratorIP5OrderEES4_EENS_4pairINS_18__unwrap_ref_decayIT_E4typeENS6_IT0_E4typeEEEOS7_OSA_, symObjAddr: 0x6F40, symBinAddr: 0x10000DA20, symSize: 0x30 }
  - { offsetInCU: 0x160A1, offset: 0x27DD8, size: 0x8, addend: 0x0, symName: __ZNSt3__114__rewrap_rangeB7v160006INS_16reverse_iteratorIP5OrderEES4_EET_S5_T0_, symObjAddr: 0x6F70, symBinAddr: 0x10000DA50, symSize: 0x60 }
  - { offsetInCU: 0x160ED, offset: 0x27E24, size: 0x8, addend: 0x0, symName: __ZNSt3__113__rewrap_iterB7v160006INS_16reverse_iteratorIP5OrderEES4_NS_18__unwrap_iter_implIS4_Lb0EEEEET_S7_T0_, symObjAddr: 0x6FD0, symBinAddr: 0x10000DAB0, symSize: 0x70 }
  - { offsetInCU: 0x16142, offset: 0x27E79, size: 0x8, addend: 0x0, symName: __ZNSt3__1neB7v160006IP5OrderS2_EEbRKNS_16reverse_iteratorIT_EERKNS3_IT0_EE, symObjAddr: 0x7040, symBinAddr: 0x10000DB20, symSize: 0x40 }
  - { offsetInCU: 0x161D6, offset: 0x27F0D, size: 0x8, addend: 0x0, symName: __ZNSt3__111__push_heapB7v160006INS_17_ClassicAlgPolicyENS_11__wrap_iterIP5OrderEE15CompareBuyOrderEEvT0_S7_RT1_, symObjAddr: 0x7480, symBinAddr: 0x10000DE80, symSize: 0x50 }
  - { offsetInCU: 0x16243, offset: 0x27F7A, size: 0x8, addend: 0x0, symName: __ZNSt3__19push_heapB7v160006INS_11__wrap_iterIP5OrderEE16CompareSellOrderEEvT_S6_T0_, symObjAddr: 0x74D0, symBinAddr: 0x10000DED0, symSize: 0x40 }
  - { offsetInCU: 0x16299, offset: 0x27FD0, size: 0x8, addend: 0x0, symName: __ZNSt3__111__push_heapB7v160006INS_17_ClassicAlgPolicyENS_11__wrap_iterIP5OrderEE16CompareSellOrderEEvT0_S7_RT1_, symObjAddr: 0x7510, symBinAddr: 0x10000DF10, symSize: 0x50 }
  - { offsetInCU: 0x16306, offset: 0x2803D, size: 0x8, addend: 0x0, symName: __ZNSt3__119__allocate_at_leastB7v160006INS_9allocatorI13ExecutedTradeEEEENS_19__allocation_resultINS_16allocator_traitsIT_E7pointerEEERS6_m, symObjAddr: 0x7E30, symBinAddr: 0x10000E710, symSize: 0x40 }
  - { offsetInCU: 0x16349, offset: 0x28080, size: 0x8, addend: 0x0, symName: __ZNSt3__142__uninitialized_allocator_move_if_noexceptB7v160006INS_9allocatorI13ExecutedTradeEENS_16reverse_iteratorIPS2_EES6_S2_vEET1_RT_T0_SA_S7_, symObjAddr: 0x8070, symBinAddr: 0x10000E8A0, symSize: 0x70 }
  - { offsetInCU: 0x163C5, offset: 0x280FC, size: 0x8, addend: 0x0, symName: __ZNSt3__14swapB7v160006IP13ExecutedTradeEENS_9enable_ifIXaasr21is_move_constructibleIT_EE5valuesr18is_move_assignableIS4_EE5valueEvE4typeERS4_S7_, symObjAddr: 0x8130, symBinAddr: 0x10000E960, symSize: 0x40 }
  - { offsetInCU: 0x16416, offset: 0x2814D, size: 0x8, addend: 0x0, symName: __ZNSt3__125__debug_db_invalidate_allB7v160006INS_6vectorI13ExecutedTradeNS_9allocatorIS2_EEEEEEvPT_, symObjAddr: 0x8210, symBinAddr: 0x10000EA40, symSize: 0x10 }
  - { offsetInCU: 0x16447, offset: 0x2817E, size: 0x8, addend: 0x0, symName: __ZNSt3__14moveB7v160006INS_16reverse_iteratorIP13ExecutedTradeEES4_EET0_T_S6_S5_, symObjAddr: 0x8260, symBinAddr: 0x10000EA50, symSize: 0x80 }
  - { offsetInCU: 0x164A1, offset: 0x281D8, size: 0x8, addend: 0x0, symName: __ZNSt3__16__moveB7v160006INS_17_ClassicAlgPolicyENS_16reverse_iteratorIP13ExecutedTradeEES5_S5_EENS_4pairIT0_T2_EES7_T1_S8_, symObjAddr: 0x82E0, symBinAddr: 0x10000EAD0, symSize: 0x90 }
  - { offsetInCU: 0x1650D, offset: 0x28244, size: 0x8, addend: 0x0, symName: __ZNSt3__123__dispatch_copy_or_moveB7v160006INS_17_ClassicAlgPolicyENS_11__move_loopIS1_EENS_14__move_trivialENS_16reverse_iteratorIP13ExecutedTradeEES8_S8_EENS_4pairIT2_T4_EESA_T3_SB_, symObjAddr: 0x8370, symBinAddr: 0x10000EB60, symSize: 0x90 }
  - { offsetInCU: 0x1658B, offset: 0x282C2, size: 0x8, addend: 0x0, symName: __ZNSt3__121__unwrap_and_dispatchB7v160006INS_10__overloadINS_11__move_loopINS_17_ClassicAlgPolicyEEENS_14__move_trivialEEENS_16reverse_iteratorIP13ExecutedTradeEESA_SA_Li0EEENS_4pairIT0_T2_EESC_T1_SD_, symObjAddr: 0x8400, symBinAddr: 0x10000EBF0, symSize: 0x210 }
  - { offsetInCU: 0x1661A, offset: 0x28351, size: 0x8, addend: 0x0, symName: __ZNSt3__114__unwrap_rangeB7v160006INS_16reverse_iteratorIP13ExecutedTradeEES4_EENS_4pairIT0_S6_EET_S8_, symObjAddr: 0x8610, symBinAddr: 0x10000EE00, symSize: 0x90 }
  - { offsetInCU: 0x1673A, offset: 0x28471, size: 0x8, addend: 0x0, symName: __ZNSt3__113__unwrap_iterB7v160006INS_16reverse_iteratorIP13ExecutedTradeEENS_18__unwrap_iter_implIS4_Lb0EEELi0EEEDTclsrT0_8__unwrapclsr3stdE7declvalIT_EEEES8_, symObjAddr: 0x8750, symBinAddr: 0x10000EF40, symSize: 0x40 }
  - { offsetInCU: 0x1677E, offset: 0x284B5, size: 0x8, addend: 0x0, symName: __ZNSt3__19make_pairB7v160006INS_16reverse_iteratorIP13ExecutedTradeEES4_EENS_4pairINS_18__unwrap_ref_decayIT_E4typeENS6_IT0_E4typeEEEOS7_OSA_, symObjAddr: 0x8790, symBinAddr: 0x10000EF80, symSize: 0x30 }
  - { offsetInCU: 0x167CD, offset: 0x28504, size: 0x8, addend: 0x0, symName: __ZNSt3__114__rewrap_rangeB7v160006INS_16reverse_iteratorIP13ExecutedTradeEES4_EET_S5_T0_, symObjAddr: 0x87C0, symBinAddr: 0x10000EFB0, symSize: 0x60 }
  - { offsetInCU: 0x16819, offset: 0x28550, size: 0x8, addend: 0x0, symName: __ZNSt3__113__rewrap_iterB7v160006INS_16reverse_iteratorIP13ExecutedTradeEES4_NS_18__unwrap_iter_implIS4_Lb0EEEEET_S7_T0_, symObjAddr: 0x8820, symBinAddr: 0x10000F010, symSize: 0x70 }
  - { offsetInCU: 0x1686E, offset: 0x285A5, size: 0x8, addend: 0x0, symName: __ZNSt3__1neB7v160006IP13ExecutedTradeS2_EEbRKNS_16reverse_iteratorIT_EERKNS3_IT0_EE, symObjAddr: 0x8890, symBinAddr: 0x10000F080, symSize: 0x40 }
  - { offsetInCU: 0x16B27, offset: 0x2885E, size: 0x8, addend: 0x0, symName: __ZNSt3__118__cxx_atomic_storeB7v160006IbEEvPNS_22__cxx_atomic_base_implIT_EES2_NS_12memory_orderE, symObjAddr: 0x9350, symBinAddr: 0x10000FA80, symSize: 0x70 }
  - { offsetInCU: 0x16F75, offset: 0x28CAC, size: 0x8, addend: 0x0, symName: __ZNSt3__122__libcpp_thread_createB7v160006EPP17_opaque_pthread_tPFPvS3_ES3_, symObjAddr: 0x9630, symBinAddr: 0x10000FD60, symSize: 0x30 }
  - { offsetInCU: 0x16FC1, offset: 0x28CF8, size: 0x8, addend: 0x0, symName: __ZNSt3__114__thread_proxyB7v160006INS_5tupleIJNS_10unique_ptrINS_15__thread_structENS_14default_deleteIS3_EEEEM6MarketFviRNS_6atomicIbEEEPS7_iNS_17reference_wrapperIS9_EEEEEEEPvSH_, symObjAddr: 0x9660, symBinAddr: 0x10000FD90, symSize: 0xA0 }
  - { offsetInCU: 0x17133, offset: 0x28E6A, size: 0x8, addend: 0x0, symName: __ZNSt3__13getB7v160006ILm0EJNS_10unique_ptrINS_15__thread_structENS_14default_deleteIS2_EEEEM6MarketFviRNS_6atomicIbEEEPS6_iNS_17reference_wrapperIS8_EEEEERNS_13tuple_elementIXT_ENS_5tupleIJDpT0_EEEE4typeERSJ_, symObjAddr: 0x9D60, symBinAddr: 0x100010490, symSize: 0x20 }
  - { offsetInCU: 0x1718A, offset: 0x28EC1, size: 0x8, addend: 0x0, symName: __ZNSt3__116__thread_executeB7v160006INS_10unique_ptrINS_15__thread_structENS_14default_deleteIS2_EEEEM6MarketFviRNS_6atomicIbEEEJPS6_iNS_17reference_wrapperIS8_EEEJLm2ELm3ELm4EEEEvRNS_5tupleIJT_T0_DpT1_EEENS_15__tuple_indicesIJXspT2_EEEE, symObjAddr: 0x9D80, symBinAddr: 0x1000104B0, symSize: 0x60 }
  - { offsetInCU: 0x171FE, offset: 0x28F35, size: 0x8, addend: 0x0, symName: __ZNSt3__116__libcpp_tls_setB7v160006EmPv, symObjAddr: 0x9DE0, symBinAddr: 0x100010510, symSize: 0x30 }
  - { offsetInCU: 0x1723B, offset: 0x28F72, size: 0x8, addend: 0x0, symName: __ZNSt3__18__invokeB7v160006IM6MarketFviRNS_6atomicIbEEEPS1_JiNS_17reference_wrapperIS3_EEEvEEDTcldsdeclsr3stdE7declvalIT0_EEclsr3stdE7declvalIT_EEspclsr3stdE7declvalIT1_EEEEOSB_OSA_DpOSC_, symObjAddr: 0x9E20, symBinAddr: 0x100010550, symSize: 0xA0 }
  - { offsetInCU: 0x172B5, offset: 0x28FEC, size: 0x8, addend: 0x0, symName: __ZNSt3__13getB7v160006ILm1EJNS_10unique_ptrINS_15__thread_structENS_14default_deleteIS2_EEEEM6MarketFviRNS_6atomicIbEEEPS6_iNS_17reference_wrapperIS8_EEEEERNS_13tuple_elementIXT_ENS_5tupleIJDpT0_EEEE4typeERSJ_, symObjAddr: 0x9EC0, symBinAddr: 0x1000105F0, symSize: 0x20 }
  - { offsetInCU: 0x1730C, offset: 0x29043, size: 0x8, addend: 0x0, symName: __ZNSt3__13getB7v160006ILm2EJNS_10unique_ptrINS_15__thread_structENS_14default_deleteIS2_EEEEM6MarketFviRNS_6atomicIbEEEPS6_iNS_17reference_wrapperIS8_EEEEERNS_13tuple_elementIXT_ENS_5tupleIJDpT0_EEEE4typeERSJ_, symObjAddr: 0x9EE0, symBinAddr: 0x100010610, symSize: 0x20 }
  - { offsetInCU: 0x17363, offset: 0x2909A, size: 0x8, addend: 0x0, symName: __ZNSt3__13getB7v160006ILm3EJNS_10unique_ptrINS_15__thread_structENS_14default_deleteIS2_EEEEM6MarketFviRNS_6atomicIbEEEPS6_iNS_17reference_wrapperIS8_EEEEERNS_13tuple_elementIXT_ENS_5tupleIJDpT0_EEEE4typeERSJ_, symObjAddr: 0x9F00, symBinAddr: 0x100010630, symSize: 0x20 }
  - { offsetInCU: 0x173BA, offset: 0x290F1, size: 0x8, addend: 0x0, symName: __ZNSt3__13getB7v160006ILm4EJNS_10unique_ptrINS_15__thread_structENS_14default_deleteIS2_EEEEM6MarketFviRNS_6atomicIbEEEPS6_iNS_17reference_wrapperIS8_EEEEERNS_13tuple_elementIXT_ENS_5tupleIJDpT0_EEEE4typeERSJ_, symObjAddr: 0x9F20, symBinAddr: 0x100010650, symSize: 0x20 }
  - { offsetInCU: 0x17411, offset: 0x29148, size: 0x8, addend: 0x0, symName: __ZNSt3__119__debug_db_insert_cB7v160006INS_6vectorINS_6threadENS_9allocatorIS2_EEEEEEvPT_, symObjAddr: 0xA300, symBinAddr: 0x100010A30, symSize: 0x10 }
  - { offsetInCU: 0x17442, offset: 0x29179, size: 0x8, addend: 0x0, symName: __ZNSt3__118__debug_db_erase_cB7v160006INS_6vectorINS_6threadENS_9allocatorIS2_EEEEEEvPT_, symObjAddr: 0xA590, symBinAddr: 0x100010CC0, symSize: 0x10 }
  - { offsetInCU: 0x17473, offset: 0x291AA, size: 0x8, addend: 0x0, symName: __ZNSt3__112__to_addressB7v160006INS_6threadEEEPT_S3_, symObjAddr: 0xA6A0, symBinAddr: 0x100010DD0, symSize: 0x10 }
  - { offsetInCU: 0x174A8, offset: 0x291DF, size: 0x8, addend: 0x0, symName: __ZNSt3__119__debug_db_insert_cB7v160006INS_6vectorINS_10unique_ptrI4BotsNS_14default_deleteIS3_EEEENS_9allocatorIS6_EEEEEEvPT_, symObjAddr: 0xA8D0, symBinAddr: 0x100011000, symSize: 0x10 }
  - { offsetInCU: 0x174D9, offset: 0x29210, size: 0x8, addend: 0x0, symName: __ZNSt3__118__debug_db_erase_cB7v160006INS_6vectorINS_10unique_ptrI4BotsNS_14default_deleteIS3_EEEENS_9allocatorIS6_EEEEEEvPT_, symObjAddr: 0xAB60, symBinAddr: 0x100011290, symSize: 0x10 }
  - { offsetInCU: 0x1750A, offset: 0x29241, size: 0x8, addend: 0x0, symName: __ZNSt3__112__to_addressB7v160006INS_10unique_ptrI4BotsNS_14default_deleteIS2_EEEEEEPT_S7_, symObjAddr: 0xAC70, symBinAddr: 0x1000113A0, symSize: 0x10 }
  - { offsetInCU: 0x1753F, offset: 0x29276, size: 0x8, addend: 0x0, symName: __ZNSt3__119__allocate_at_leastB7v160006INS_9allocatorINS_10unique_ptrI4BotsNS_14default_deleteIS3_EEEEEEEENS_19__allocation_resultINS_16allocator_traitsIT_E7pointerEEERSA_m, symObjAddr: 0xB8E0, symBinAddr: 0x100012010, symSize: 0x40 }
  - { offsetInCU: 0x17582, offset: 0x292B9, size: 0x8, addend: 0x0, symName: __ZNSt3__142__uninitialized_allocator_move_if_noexceptB7v160006INS_9allocatorINS_10unique_ptrI4BotsNS_14default_deleteIS3_EEEEEENS_16reverse_iteratorIPS6_EESA_SA_EET2_RT_T0_T1_SB_, symObjAddr: 0xBA70, symBinAddr: 0x1000121A0, symSize: 0x180 }
  - { offsetInCU: 0x17623, offset: 0x2935A, size: 0x8, addend: 0x0, symName: __ZNSt3__14swapB7v160006IPNS_10unique_ptrI4BotsNS_14default_deleteIS2_EEEEEENS_9enable_ifIXaasr21is_move_constructibleIT_EE5valuesr18is_move_assignableIS8_EE5valueEvE4typeERS8_SB_, symObjAddr: 0xBC40, symBinAddr: 0x100012370, symSize: 0x40 }
  - { offsetInCU: 0x17674, offset: 0x293AB, size: 0x8, addend: 0x0, symName: __ZNSt3__125__debug_db_invalidate_allB7v160006INS_6vectorINS_10unique_ptrI4BotsNS_14default_deleteIS3_EEEENS_9allocatorIS6_EEEEEEvPT_, symObjAddr: 0xBD30, symBinAddr: 0x100012460, symSize: 0x10 }
  - { offsetInCU: 0x176A5, offset: 0x293DC, size: 0x8, addend: 0x0, symName: __ZNSt3__122__make_exception_guardB7v160006INS_29_AllocatorDestroyRangeReverseINS_9allocatorINS_10unique_ptrI4BotsNS_14default_deleteIS4_EEEEEENS_16reverse_iteratorIPS7_EEEEEENS_28__exception_guard_exceptionsIT_EESE_, symObjAddr: 0xBD40, symBinAddr: 0x100012470, symSize: 0x60 }
  - { offsetInCU: 0x176DA, offset: 0x29411, size: 0x8, addend: 0x0, symName: __ZNSt3__1neB7v160006IPNS_10unique_ptrI4BotsNS_14default_deleteIS2_EEEES6_EEbRKNS_16reverse_iteratorIT_EERKNS7_IT0_EE, symObjAddr: 0xBDE0, symBinAddr: 0x100012510, symSize: 0x40 }
  - { offsetInCU: 0x17726, offset: 0x2945D, size: 0x8, addend: 0x0, symName: __ZNSt3__112__to_addressB7v160006INS_16reverse_iteratorIPNS_10unique_ptrI4BotsNS_14default_deleteIS3_EEEEEEvEENS_5decayIDTclsr19__to_address_helperIT_EE6__callclsr3stdE7declvalIRKSA_EEEEE4typeESC_, symObjAddr: 0xBE20, symBinAddr: 0x100012550, symSize: 0x20 }
  - { offsetInCU: 0x17786, offset: 0x294BD, size: 0x8, addend: 0x0, symName: __ZNSt3__119__allocator_destroyB7v160006INS_9allocatorINS_10unique_ptrI4BotsNS_14default_deleteIS3_EEEEEENS_16reverse_iteratorINS8_IPS6_EEEESB_EEvRT_T0_T1_, symObjAddr: 0xC110, symBinAddr: 0x100012840, symSize: 0x70 }
  - { offsetInCU: 0x177E9, offset: 0x29520, size: 0x8, addend: 0x0, symName: __ZNSt3__1neB7v160006INS_16reverse_iteratorIPNS_10unique_ptrI4BotsNS_14default_deleteIS3_EEEEEES8_EEbRKNS1_IT_EERKNS1_IT0_EE, symObjAddr: 0xC1B0, symBinAddr: 0x1000128E0, symSize: 0x50 }
  - { offsetInCU: 0x17835, offset: 0x2956C, size: 0x8, addend: 0x0, symName: __ZNSt3__112__to_addressB7v160006INS_16reverse_iteratorINS1_IPNS_10unique_ptrI4BotsNS_14default_deleteIS3_EEEEEEEEvEENS_5decayIDTclsr19__to_address_helperIT_EE6__callclsr3stdE7declvalIRKSB_EEEEE4typeESD_, symObjAddr: 0xC200, symBinAddr: 0x100012930, symSize: 0x20 }
  - { offsetInCU: 0x17C92, offset: 0x299C9, size: 0x8, addend: 0x0, symName: __ZNSt3__114__thread_proxyB7v160006INS_5tupleIJNS_10unique_ptrINS_15__thread_structENS_14default_deleteIS3_EEEEM4BotsFvR6MarketRNS_5mutexEidRNS_6atomicIbEEEPS7_NS_17reference_wrapperIS8_EENSI_ISA_EEiiNSI_ISD_EEEEEEEPvSN_, symObjAddr: 0xCC80, symBinAddr: 0x1000133B0, symSize: 0xA0 }
  - { offsetInCU: 0x17D11, offset: 0x29A48, size: 0x8, addend: 0x0, symName: __ZNSt3__13getB7v160006ILm0EJNS_10unique_ptrINS_15__thread_structENS_14default_deleteIS2_EEEEM4BotsFvR6MarketRNS_5mutexEidRNS_6atomicIbEEEPS6_NS_17reference_wrapperIS7_EENSH_IS9_EEiiNSH_ISC_EEEEERNS_13tuple_elementIXT_ENS_5tupleIJDpT0_EEEE4typeERSP_, symObjAddr: 0xD110, symBinAddr: 0x100013840, symSize: 0x20 }
  - { offsetInCU: 0x17D77, offset: 0x29AAE, size: 0x8, addend: 0x0, symName: __ZNSt3__116__thread_executeB7v160006INS_10unique_ptrINS_15__thread_structENS_14default_deleteIS2_EEEEM4BotsFvR6MarketRNS_5mutexEidRNS_6atomicIbEEEJPS6_NS_17reference_wrapperIS7_EENSH_IS9_EEiiNSH_ISC_EEEJLm2ELm3ELm4ELm5ELm6ELm7EEEEvRNS_5tupleIJT_T0_DpT1_EEENS_15__tuple_indicesIJXspT2_EEEE, symObjAddr: 0xD130, symBinAddr: 0x100013860, symSize: 0x90 }
  - { offsetInCU: 0x17E0C, offset: 0x29B43, size: 0x8, addend: 0x0, symName: __ZNSt3__18__invokeB7v160006IM4BotsFvR6MarketRNS_5mutexEidRNS_6atomicIbEEEPS1_JNS_17reference_wrapperIS2_EENSC_IS4_EEiiNSC_IS7_EEEvEEDTcldsdeclsr3stdE7declvalIT0_EEclsr3stdE7declvalIT_EEspclsr3stdE7declvalIT1_EEEEOSH_OSG_DpOSI_, symObjAddr: 0xD1C0, symBinAddr: 0x1000138F0, symSize: 0xE0 }
  - { offsetInCU: 0x17EC2, offset: 0x29BF9, size: 0x8, addend: 0x0, symName: __ZNSt3__13getB7v160006ILm1EJNS_10unique_ptrINS_15__thread_structENS_14default_deleteIS2_EEEEM4BotsFvR6MarketRNS_5mutexEidRNS_6atomicIbEEEPS6_NS_17reference_wrapperIS7_EENSH_IS9_EEiiNSH_ISC_EEEEERNS_13tuple_elementIXT_ENS_5tupleIJDpT0_EEEE4typeERSP_, symObjAddr: 0xD2A0, symBinAddr: 0x1000139D0, symSize: 0x20 }
  - { offsetInCU: 0x17F28, offset: 0x29C5F, size: 0x8, addend: 0x0, symName: __ZNSt3__13getB7v160006ILm2EJNS_10unique_ptrINS_15__thread_structENS_14default_deleteIS2_EEEEM4BotsFvR6MarketRNS_5mutexEidRNS_6atomicIbEEEPS6_NS_17reference_wrapperIS7_EENSH_IS9_EEiiNSH_ISC_EEEEERNS_13tuple_elementIXT_ENS_5tupleIJDpT0_EEEE4typeERSP_, symObjAddr: 0xD2C0, symBinAddr: 0x1000139F0, symSize: 0x20 }
  - { offsetInCU: 0x17F8E, offset: 0x29CC5, size: 0x8, addend: 0x0, symName: __ZNSt3__13getB7v160006ILm3EJNS_10unique_ptrINS_15__thread_structENS_14default_deleteIS2_EEEEM4BotsFvR6MarketRNS_5mutexEidRNS_6atomicIbEEEPS6_NS_17reference_wrapperIS7_EENSH_IS9_EEiiNSH_ISC_EEEEERNS_13tuple_elementIXT_ENS_5tupleIJDpT0_EEEE4typeERSP_, symObjAddr: 0xD2E0, symBinAddr: 0x100013A10, symSize: 0x20 }
  - { offsetInCU: 0x17FF4, offset: 0x29D2B, size: 0x8, addend: 0x0, symName: __ZNSt3__13getB7v160006ILm4EJNS_10unique_ptrINS_15__thread_structENS_14default_deleteIS2_EEEEM4BotsFvR6MarketRNS_5mutexEidRNS_6atomicIbEEEPS6_NS_17reference_wrapperIS7_EENSH_IS9_EEiiNSH_ISC_EEEEERNS_13tuple_elementIXT_ENS_5tupleIJDpT0_EEEE4typeERSP_, symObjAddr: 0xD300, symBinAddr: 0x100013A30, symSize: 0x20 }
  - { offsetInCU: 0x1805A, offset: 0x29D91, size: 0x8, addend: 0x0, symName: __ZNSt3__13getB7v160006ILm5EJNS_10unique_ptrINS_15__thread_structENS_14default_deleteIS2_EEEEM4BotsFvR6MarketRNS_5mutexEidRNS_6atomicIbEEEPS6_NS_17reference_wrapperIS7_EENSH_IS9_EEiiNSH_ISC_EEEEERNS_13tuple_elementIXT_ENS_5tupleIJDpT0_EEEE4typeERSP_, symObjAddr: 0xD320, symBinAddr: 0x100013A50, symSize: 0x20 }
  - { offsetInCU: 0x180C0, offset: 0x29DF7, size: 0x8, addend: 0x0, symName: __ZNSt3__13getB7v160006ILm6EJNS_10unique_ptrINS_15__thread_structENS_14default_deleteIS2_EEEEM4BotsFvR6MarketRNS_5mutexEidRNS_6atomicIbEEEPS6_NS_17reference_wrapperIS7_EENSH_IS9_EEiiNSH_ISC_EEEEERNS_13tuple_elementIXT_ENS_5tupleIJDpT0_EEEE4typeERSP_, symObjAddr: 0xD340, symBinAddr: 0x100013A70, symSize: 0x20 }
  - { offsetInCU: 0x18126, offset: 0x29E5D, size: 0x8, addend: 0x0, symName: __ZNSt3__13getB7v160006ILm7EJNS_10unique_ptrINS_15__thread_structENS_14default_deleteIS2_EEEEM4BotsFvR6MarketRNS_5mutexEidRNS_6atomicIbEEEPS6_NS_17reference_wrapperIS7_EENSH_IS9_EEiiNSH_ISC_EEEEERNS_13tuple_elementIXT_ENS_5tupleIJDpT0_EEEE4typeERSP_, symObjAddr: 0xD360, symBinAddr: 0x100013A90, symSize: 0x20 }
  - { offsetInCU: 0x1818C, offset: 0x29EC3, size: 0x8, addend: 0x0, symName: __ZNSt3__119__allocate_at_leastB7v160006INS_9allocatorINS_6threadEEEEENS_19__allocation_resultINS_16allocator_traitsIT_E7pointerEEERS6_m, symObjAddr: 0xDA70, symBinAddr: 0x1000141A0, symSize: 0x40 }
  - { offsetInCU: 0x181CF, offset: 0x29F06, size: 0x8, addend: 0x0, symName: __ZNSt3__142__uninitialized_allocator_move_if_noexceptB7v160006INS_9allocatorINS_6threadEEENS_16reverse_iteratorIPS2_EES6_S6_EET2_RT_T0_T1_S7_, symObjAddr: 0xDC00, symBinAddr: 0x100014330, symSize: 0x180 }
  - { offsetInCU: 0x18270, offset: 0x29FA7, size: 0x8, addend: 0x0, symName: __ZNSt3__14swapB7v160006IPNS_6threadEEENS_9enable_ifIXaasr21is_move_constructibleIT_EE5valuesr18is_move_assignableIS4_EE5valueEvE4typeERS4_S7_, symObjAddr: 0xDDD0, symBinAddr: 0x100014500, symSize: 0x40 }
  - { offsetInCU: 0x182C1, offset: 0x29FF8, size: 0x8, addend: 0x0, symName: __ZNSt3__125__debug_db_invalidate_allB7v160006INS_6vectorINS_6threadENS_9allocatorIS2_EEEEEEvPT_, symObjAddr: 0xDEC0, symBinAddr: 0x1000145F0, symSize: 0x10 }
  - { offsetInCU: 0x182F2, offset: 0x2A029, size: 0x8, addend: 0x0, symName: __ZNSt3__122__make_exception_guardB7v160006INS_29_AllocatorDestroyRangeReverseINS_9allocatorINS_6threadEEENS_16reverse_iteratorIPS3_EEEEEENS_28__exception_guard_exceptionsIT_EESA_, symObjAddr: 0xDED0, symBinAddr: 0x100014600, symSize: 0x60 }
  - { offsetInCU: 0x18327, offset: 0x2A05E, size: 0x8, addend: 0x0, symName: __ZNSt3__1neB7v160006IPNS_6threadES2_EEbRKNS_16reverse_iteratorIT_EERKNS3_IT0_EE, symObjAddr: 0xDF70, symBinAddr: 0x1000146A0, symSize: 0x40 }
  - { offsetInCU: 0x18373, offset: 0x2A0AA, size: 0x8, addend: 0x0, symName: __ZNSt3__112__to_addressB7v160006INS_16reverse_iteratorIPNS_6threadEEEvEENS_5decayIDTclsr19__to_address_helperIT_EE6__callclsr3stdE7declvalIRKS6_EEEEE4typeES8_, symObjAddr: 0xDFE0, symBinAddr: 0x100014710, symSize: 0x20 }
  - { offsetInCU: 0x183D3, offset: 0x2A10A, size: 0x8, addend: 0x0, symName: __ZNSt3__119__allocator_destroyB7v160006INS_9allocatorINS_6threadEEENS_16reverse_iteratorINS4_IPS2_EEEES7_EEvRT_T0_T1_, symObjAddr: 0xE360, symBinAddr: 0x100014A90, symSize: 0x70 }
  - { offsetInCU: 0x18436, offset: 0x2A16D, size: 0x8, addend: 0x0, symName: __ZNSt3__1neB7v160006INS_16reverse_iteratorIPNS_6threadEEES4_EEbRKNS1_IT_EERKNS1_IT0_EE, symObjAddr: 0xE400, symBinAddr: 0x100014B30, symSize: 0x50 }
  - { offsetInCU: 0x18482, offset: 0x2A1B9, size: 0x8, addend: 0x0, symName: __ZNSt3__112__to_addressB7v160006INS_16reverse_iteratorINS1_IPNS_6threadEEEEEvEENS_5decayIDTclsr19__to_address_helperIT_EE6__callclsr3stdE7declvalIRKS7_EEEEE4typeES9_, symObjAddr: 0xE450, symBinAddr: 0x100014B80, symSize: 0x20 }
  - { offsetInCU: 0x184E2, offset: 0x2A219, size: 0x8, addend: 0x0, symName: __ZNSt3__116__is_hash_power2B7v160006Em, symObjAddr: 0xEF90, symBinAddr: 0x1000156C0, symSize: 0x40 }
  - { offsetInCU: 0x1852C, offset: 0x2A263, size: 0x8, addend: 0x0, symName: __ZNSt3__116__next_hash_pow2B7v160006Em, symObjAddr: 0xF970, symBinAddr: 0x100016000, symSize: 0x60 }
  - { offsetInCU: 0x18558, offset: 0x2A28F, size: 0x8, addend: 0x0, symName: __ZNSt3__125__debug_db_invalidate_allB7v160006INS_12__hash_tableINS_17__hash_value_typeIi4BotsEENS_22__unordered_map_hasherIiS4_NS_4hashIiEENS_8equal_toIiEELb1EEENS_21__unordered_map_equalIiS4_S9_S7_Lb1EEENS_9allocatorIS4_EEEEEEvPT_, symObjAddr: 0xF9D0, symBinAddr: 0x100016060, symSize: 0x10 }
  - { offsetInCU: 0x18589, offset: 0x2A2C0, size: 0x8, addend: 0x0, symName: __ZNSt3__112__libcpp_clzB7v160006Em, symObjAddr: 0xFCE0, symBinAddr: 0x1000161C0, symSize: 0x20 }
  - { offsetInCU: 0x185B5, offset: 0x2A2EC, size: 0x8, addend: 0x0, symName: __ZNSt3__116__pad_and_outputB7v160006IcNS_11char_traitsIcEEEENS_19ostreambuf_iteratorIT_T0_EES6_PKS4_S8_S8_RNS_8ios_baseES4_, symObjAddr: 0x103B0, symBinAddr: 0x1000167F0, symSize: 0x220 }
  - { offsetInCU: 0x1868A, offset: 0x2A3C1, size: 0x8, addend: 0x0, symName: __ZNSt3__112__to_addressB7v160006IKcEEPT_S3_, symObjAddr: 0x107E0, symBinAddr: 0x100016C20, symSize: 0x10 }
  - { offsetInCU: 0x186F2, offset: 0x2A429, size: 0x8, addend: 0x0, symName: __ZNSt3__19use_facetB7v160006INS_5ctypeIcEEEERKT_RKNS_6localeE, symObjAddr: 0x10A30, symBinAddr: 0x100016E70, symSize: 0x30 }
  - { offsetInCU: 0x18BCC, offset: 0x2A903, size: 0x8, addend: 0x0, symName: __ZNSt3__112__to_addressB7v160006INS_6chrono10time_pointINS1_12steady_clockENS1_8durationIxNS_5ratioILl1ELl1000000000EEEEEEEEEPT_SA_, symObjAddr: 0x10D00, symBinAddr: 0x100017070, symSize: 0x10 }
  - { offsetInCU: 0x191DC, offset: 0x2AF13, size: 0x8, addend: 0x0, symName: __ZNKSt3__16chrono15__duration_castINS0_8durationIxNS_5ratioILl1ELl1000000000EEEEENS2_IxNS3_ILl1ELl1EEEEES4_Lb1ELb0EEclB7v160006ERKS5_, symObjAddr: 0x2560, symBinAddr: 0x100009640, symSize: 0x50 }
  - { offsetInCU: 0x19225, offset: 0x2AF5C, size: 0x8, addend: 0x0, symName: __ZNKSt3__16chrono13__duration_ltINS0_8durationIxNS_5ratioILl1ELl1EEEEENS2_IxNS3_ILl1ELl1000000000EEEEEEclB7v160006ERKS5_RKS7_, symObjAddr: 0x2900, symBinAddr: 0x1000099E0, symSize: 0x60 }
  - { offsetInCU: 0x1927F, offset: 0x2AFB6, size: 0x8, addend: 0x0, symName: __ZNKSt3__16chrono15__duration_castINS0_8durationIxNS_5ratioILl1ELl1EEEEENS2_IxNS3_ILl1ELl1000000000EEEEENS3_ILl1000000000ELl1EEELb0ELb1EEclB7v160006ERKS5_, symObjAddr: 0x2A10, symBinAddr: 0x100009AF0, symSize: 0x40 }
  - { offsetInCU: 0x192F7, offset: 0x2B02E, size: 0x8, addend: 0x0, symName: __ZNSt3__124uniform_int_distributionIiEclINS_26linear_congruential_engineIjLj48271ELj0ELj2147483647EEEEEiRT_RKNS1_10param_typeE, symObjAddr: 0x3930, symBinAddr: 0x10000A940, symSize: 0x150 }
  - { offsetInCU: 0x19F92, offset: 0x2BCC9, size: 0x8, addend: 0x0, symName: __ZNSt3__16vectorI5OrderNS_9allocatorIS1_EEE26__swap_out_circular_bufferERNS_14__split_bufferIS1_RS3_EE, symObjAddr: 0x6000, symBinAddr: 0x10000CDC0, symSize: 0x130 }
  - { offsetInCU: 0x19FE9, offset: 0x2BD20, size: 0x8, addend: 0x0, symName: __ZNSt3__16vectorI13ExecutedTradeNS_9allocatorIS1_EEE26__swap_out_circular_bufferERNS_14__split_bufferIS1_RS3_EE, symObjAddr: 0x7A50, symBinAddr: 0x10000E3C0, symSize: 0x130 }
  - { offsetInCU: 0x1A074, offset: 0x2BDAB, size: 0x8, addend: 0x0, symName: __ZNKSt3__16chrono13__duration_ltINS0_8durationIxNS_5ratioILl1ELl1000EEEEENS2_IeNS3_ILl1ELl1EEEEEEclB7v160006ERKS5_RKS7_, symObjAddr: 0x8F20, symBinAddr: 0x10000F650, symSize: 0x70 }
  - { offsetInCU: 0x1A0F1, offset: 0x2BE28, size: 0x8, addend: 0x0, symName: __ZNKSt3__16chrono15__duration_castINS0_8durationIeNS_5ratioILl1ELl1EEEEENS2_IeNS3_ILl1ELl1000EEEEENS3_ILl1000ELl1EEELb0ELb1EEclB7v160006ERKS5_, symObjAddr: 0x9170, symBinAddr: 0x10000F8A0, symSize: 0x40 }
  - { offsetInCU: 0x1A13A, offset: 0x2BE71, size: 0x8, addend: 0x0, symName: __ZNKSt3__16chrono15__duration_castINS0_8durationIxNS_5ratioILl1ELl1000EEEEENS2_IxNS3_ILl1ELl1000000000EEEEENS3_ILl1000000ELl1EEELb0ELb1EEclB7v160006ERKS5_, symObjAddr: 0x91C0, symBinAddr: 0x10000F8F0, symSize: 0x40 }
  - { offsetInCU: 0x1A183, offset: 0x2BEBA, size: 0x8, addend: 0x0, symName: __ZNKSt3__16chrono13__duration_ltINS0_8durationIxNS_5ratioILl1ELl1000000000EEEEENS2_IxNS3_ILl1ELl1000EEEEEEclB7v160006ERKS5_RKS7_, symObjAddr: 0x9200, symBinAddr: 0x10000F930, symSize: 0x60 }
  - { offsetInCU: 0x1A902, offset: 0x2C639, size: 0x8, addend: 0x0, symName: __ZNSt3__16vectorINS_10unique_ptrI4BotsNS_14default_deleteIS2_EEEENS_9allocatorIS5_EEE26__swap_out_circular_bufferERNS_14__split_bufferIS5_RS7_EE, symObjAddr: 0xB580, symBinAddr: 0x100011CB0, symSize: 0x130 }
  - { offsetInCU: 0x1AB23, offset: 0x2C85A, size: 0x8, addend: 0x0, symName: __ZNSt3__16vectorINS_6threadENS_9allocatorIS1_EEE26__swap_out_circular_bufferERNS_14__split_bufferIS1_RS3_EE, symObjAddr: 0xD710, symBinAddr: 0x100013E40, symSize: 0x130 }
  - { offsetInCU: 0x1C9E4, offset: 0x2E71B, size: 0x8, addend: 0x0, symName: __ZN6MarketC2ENSt3__16vectorI12MarketMakersNS0_9allocatorIS2_EEEE, symObjAddr: 0x0, symBinAddr: 0x100007120, symSize: 0x90 }
  - { offsetInCU: 0x1CA1F, offset: 0x2E756, size: 0x8, addend: 0x0, symName: __ZNSt3__114priority_queueI5OrderNS_6vectorIS1_NS_9allocatorIS1_EEEE15CompareBuyOrderEC1B7v160006Ev, symObjAddr: 0x90, symBinAddr: 0x1000071B0, symSize: 0x20 }
  - { offsetInCU: 0x1CA48, offset: 0x2E77F, size: 0x8, addend: 0x0, symName: __ZNSt3__114priority_queueI5OrderNS_6vectorIS1_NS_9allocatorIS1_EEEE16CompareSellOrderEC1B7v160006Ev, symObjAddr: 0xB0, symBinAddr: 0x1000071D0, symSize: 0x20 }
  - { offsetInCU: 0x1CA71, offset: 0x2E7A8, size: 0x8, addend: 0x0, symName: __ZNSt3__16vectorI13ExecutedTradeNS_9allocatorIS1_EEEC1B7v160006Ev, symObjAddr: 0xD0, symBinAddr: 0x1000071F0, symSize: 0x20 }
  - { offsetInCU: 0x1CA9A, offset: 0x2E7D1, size: 0x8, addend: 0x0, symName: __ZNSt3__16vectorI12MarketMakersNS_9allocatorIS1_EEEC1B7v160006EOS4_, symObjAddr: 0xF0, symBinAddr: 0x100007210, symSize: 0x30 }
  - { offsetInCU: 0x1CAD5, offset: 0x2E80C, size: 0x8, addend: 0x0, symName: __ZNSt3__113unordered_mapIi4BotsNS_4hashIiEENS_8equal_toIiEENS_9allocatorINS_4pairIKiS1_EEEEEC1B7v160006Ev, symObjAddr: 0x120, symBinAddr: 0x100007240, symSize: 0x20 }
  - { offsetInCU: 0x1CAFE, offset: 0x2E835, size: 0x8, addend: 0x0, symName: __ZNSt3__15queueINS_6chrono10time_pointINS1_12steady_clockENS1_8durationIxNS_5ratioILl1ELl1000000000EEEEEEENS_5dequeIS8_NS_9allocatorIS8_EEEEEC1B7v160006Ev, symObjAddr: 0x140, symBinAddr: 0x100007260, symSize: 0x20 }
  - { offsetInCU: 0x1CB27, offset: 0x2E85E, size: 0x8, addend: 0x0, symName: __ZN6MarketC1ENSt3__16vectorI12MarketMakersNS0_9allocatorIS2_EEEE, symObjAddr: 0x160, symBinAddr: 0x100007280, symSize: 0x20 }
  - { offsetInCU: 0x1CB62, offset: 0x2E899, size: 0x8, addend: 0x0, symName: __ZN6Market16getRandomBooleanEv, symObjAddr: 0x180, symBinAddr: 0x1000072A0, symSize: 0xB0 }
  - { offsetInCU: 0x1CBBC, offset: 0x2E8F3, size: 0x8, addend: 0x0, symName: __ZNSt3__113random_deviceC1Ev, symObjAddr: 0x230, symBinAddr: 0x100007350, symSize: 0x70 }
  - { offsetInCU: 0x1CBE5, offset: 0x2E91C, size: 0x8, addend: 0x0, symName: __ZNSt3__126linear_congruential_engineIjLj48271ELj0ELj2147483647EEC1B7v160006Ej, symObjAddr: 0x2A0, symBinAddr: 0x1000073C0, symSize: 0x30 }
  - { offsetInCU: 0x1CC1C, offset: 0x2E953, size: 0x8, addend: 0x0, symName: __ZNSt3__124uniform_int_distributionIiEC1Eii, symObjAddr: 0x2D0, symBinAddr: 0x1000073F0, symSize: 0x30 }
  - { offsetInCU: 0x1CC61, offset: 0x2E998, size: 0x8, addend: 0x0, symName: __ZNSt3__124uniform_int_distributionIiEclINS_26linear_congruential_engineIjLj48271ELj0ELj2147483647EEEEEiRT_, symObjAddr: 0x300, symBinAddr: 0x100007420, symSize: 0x30 }
  - { offsetInCU: 0x1CC9E, offset: 0x2E9D5, size: 0x8, addend: 0x0, symName: __ZN6Market15getRandomDoubleEdd, symObjAddr: 0x330, symBinAddr: 0x100007450, symSize: 0xB0 }
  - { offsetInCU: 0x1CD1E, offset: 0x2EA55, size: 0x8, addend: 0x0, symName: __ZNSt3__125uniform_real_distributionIdEC1Edd, symObjAddr: 0x3E0, symBinAddr: 0x100007500, symSize: 0x30 }
  - { offsetInCU: 0x1CD63, offset: 0x2EA9A, size: 0x8, addend: 0x0, symName: __ZNSt3__125uniform_real_distributionIdEclB7v160006INS_26linear_congruential_engineIjLj48271ELj0ELj2147483647EEEEEdRT_, symObjAddr: 0x410, symBinAddr: 0x100007530, symSize: 0x30 }
  - { offsetInCU: 0x1CDA0, offset: 0x2EAD7, size: 0x8, addend: 0x0, symName: __ZN6Market16getRandomIntegerEii, symObjAddr: 0x440, symBinAddr: 0x100007560, symSize: 0xA0 }
  - { offsetInCU: 0x1CDFD, offset: 0x2EB34, size: 0x8, addend: 0x0, symName: __ZN6Market18check_limit_ordersEv, symObjAddr: 0x4E0, symBinAddr: 0x100007600, symSize: 0x330 }
  - { offsetInCU: 0x1CE5F, offset: 0x2EB96, size: 0x8, addend: 0x0, symName: __ZNKSt3__114priority_queueI5OrderNS_6vectorIS1_NS_9allocatorIS1_EEEE15CompareBuyOrderE5emptyB7v160006Ev, symObjAddr: 0x810, symBinAddr: 0x100007930, symSize: 0x20 }
  - { offsetInCU: 0x1CE85, offset: 0x2EBBC, size: 0x8, addend: 0x0, symName: __ZNKSt3__114priority_queueI5OrderNS_6vectorIS1_NS_9allocatorIS1_EEEE15CompareBuyOrderE3topB7v160006Ev, symObjAddr: 0x830, symBinAddr: 0x100007950, symSize: 0x20 }
  - { offsetInCU: 0x1CEAB, offset: 0x2EBE2, size: 0x8, addend: 0x0, symName: __ZNSt3__113unordered_mapIi4BotsNS_4hashIiEENS_8equal_toIiEENS_9allocatorINS_4pairIKiS1_EEEEE2atERS8_, symObjAddr: 0x850, symBinAddr: 0x100007970, symSize: 0x70 }
  - { offsetInCU: 0x1CEF2, offset: 0x2EC29, size: 0x8, addend: 0x0, symName: __ZN6Market13execute_tradeEdi, symObjAddr: 0x8C0, symBinAddr: 0x1000079E0, symSize: 0x30 }
  - { offsetInCU: 0x1CF36, offset: 0x2EC6D, size: 0x8, addend: 0x0, symName: __ZNSt3__114priority_queueI5OrderNS_6vectorIS1_NS_9allocatorIS1_EEEE15CompareBuyOrderE3popEv, symObjAddr: 0x8F0, symBinAddr: 0x100007A10, symSize: 0x50 }
  - { offsetInCU: 0x1CF5E, offset: 0x2EC95, size: 0x8, addend: 0x0, symName: __ZNKSt3__114priority_queueI5OrderNS_6vectorIS1_NS_9allocatorIS1_EEEE16CompareSellOrderE5emptyB7v160006Ev, symObjAddr: 0x940, symBinAddr: 0x100007A60, symSize: 0x20 }
  - { offsetInCU: 0x1CF84, offset: 0x2ECBB, size: 0x8, addend: 0x0, symName: __ZNKSt3__114priority_queueI5OrderNS_6vectorIS1_NS_9allocatorIS1_EEEE16CompareSellOrderE3topB7v160006Ev, symObjAddr: 0x960, symBinAddr: 0x100007A80, symSize: 0x20 }
  - { offsetInCU: 0x1CFAA, offset: 0x2ECE1, size: 0x8, addend: 0x0, symName: __ZNSt3__114priority_queueI5OrderNS_6vectorIS1_NS_9allocatorIS1_EEEE16CompareSellOrderE3popEv, symObjAddr: 0x980, symBinAddr: 0x100007AA0, symSize: 0x50 }
  - { offsetInCU: 0x1CFD2, offset: 0x2ED09, size: 0x8, addend: 0x0, symName: __ZN6Market22add_to_buy_limit_queueER5Order, symObjAddr: 0x9D0, symBinAddr: 0x100007AF0, symSize: 0x30 }
  - { offsetInCU: 0x1D008, offset: 0x2ED3F, size: 0x8, addend: 0x0, symName: __ZNSt3__114priority_queueI5OrderNS_6vectorIS1_NS_9allocatorIS1_EEEE15CompareBuyOrderE4pushERKS1_, symObjAddr: 0xA00, symBinAddr: 0x100007B20, symSize: 0x50 }
  - { offsetInCU: 0x1D03F, offset: 0x2ED76, size: 0x8, addend: 0x0, symName: __ZN6Market23add_to_sell_limit_queueER5Order, symObjAddr: 0xA50, symBinAddr: 0x100007B70, symSize: 0x30 }
  - { offsetInCU: 0x1D075, offset: 0x2EDAC, size: 0x8, addend: 0x0, symName: __ZNSt3__114priority_queueI5OrderNS_6vectorIS1_NS_9allocatorIS1_EEEE16CompareSellOrderE4pushERKS1_, symObjAddr: 0xA80, symBinAddr: 0x100007BA0, symSize: 0x50 }
  - { offsetInCU: 0x1D0B1, offset: 0x2EDE8, size: 0x8, addend: 0x0, symName: __ZNSt3__16vectorI13ExecutedTradeNS_9allocatorIS1_EEE12emplace_backIJRdRiEEEvDpOT_, symObjAddr: 0xAD0, symBinAddr: 0x100007BF0, symSize: 0x70 }
  - { offsetInCU: 0x1D107, offset: 0x2EE3E, size: 0x8, addend: 0x0, symName: __ZN6Market13getHighestBidEv, symObjAddr: 0xB40, symBinAddr: 0x100007C60, symSize: 0x20 }
  - { offsetInCU: 0x1D12F, offset: 0x2EE66, size: 0x8, addend: 0x0, symName: __ZN6Market12getLowestAskEv, symObjAddr: 0xB60, symBinAddr: 0x100007C80, symSize: 0x20 }
  - { offsetInCU: 0x1D157, offset: 0x2EE8E, size: 0x8, addend: 0x0, symName: __ZN6Market23check_orders_and_spreadEiRNSt3__16atomicIbEE, symObjAddr: 0xB80, symBinAddr: 0x100007CA0, symSize: 0xB0 }
  - { offsetInCU: 0x1D1A9, offset: 0x2EEE0, size: 0x8, addend: 0x0, symName: __ZNKSt3__16chrono8durationIxNS_5ratioILl1ELl1EEEE5countB7v160006Ev, symObjAddr: 0xCB0, symBinAddr: 0x100007DD0, symSize: 0x20 }
  - { offsetInCU: 0x1D1CF, offset: 0x2EF06, size: 0x8, addend: 0x0, symName: __ZN6Market17regenerate_spreadEv, symObjAddr: 0xCD0, symBinAddr: 0x100007DF0, symSize: 0x1D0 }
  - { offsetInCU: 0x1D235, offset: 0x2EF6C, size: 0x8, addend: 0x0, symName: __ZNSt3__16chrono8durationIxNS_5ratioILl1ELl1000EEEEC1B7v160006IiEERKT_PNS_9enable_ifIXaasr14is_convertibleIS8_xEE5valueooL_ZNS_17integral_constantIbLb0EE5valueEEntsr23treat_as_floating_pointIS6_EE5valueEvE4typeE, symObjAddr: 0xF70, symBinAddr: 0x100008090, symSize: 0x30 }
  - { offsetInCU: 0x1D280, offset: 0x2EFB7, size: 0x8, addend: 0x0, symName: __ZNSt3__16atomicIbEaSB7v160006Eb, symObjAddr: 0xFA0, symBinAddr: 0x1000080C0, symSize: 0x40 }
  - { offsetInCU: 0x1D2B5, offset: 0x2EFEC, size: 0x8, addend: 0x0, symName: __ZN6Market15simulate_marketEiii, symObjAddr: 0xFE0, symBinAddr: 0x100008100, symSize: 0x620 }
  - { offsetInCU: 0x1D429, offset: 0x2F160, size: 0x8, addend: 0x0, symName: __ZNSt3__15mutexC1B7v160006Ev, symObjAddr: 0x1600, symBinAddr: 0x100008720, symSize: 0x20 }
  - { offsetInCU: 0x1D461, offset: 0x2F198, size: 0x8, addend: 0x0, symName: __ZNSt3__16threadC1IM6MarketFviRNS_6atomicIbEEEJPS2_RiNS_17reference_wrapperIS4_EEEvEEOT_DpOT0_, symObjAddr: 0x1650, symBinAddr: 0x100008770, symSize: 0x40 }
  - { offsetInCU: 0x1D4E5, offset: 0x2F21C, size: 0x8, addend: 0x0, symName: __ZNSt3__16vectorINS_6threadENS_9allocatorIS1_EEEC1B7v160006Ev, symObjAddr: 0x1690, symBinAddr: 0x1000087B0, symSize: 0x20 }
  - { offsetInCU: 0x1D50E, offset: 0x2F245, size: 0x8, addend: 0x0, symName: __ZNSt3__16vectorINS_10unique_ptrI4BotsNS_14default_deleteIS2_EEEENS_9allocatorIS5_EEEC1B7v160006Ev, symObjAddr: 0x16B0, symBinAddr: 0x1000087D0, symSize: 0x20 }
  - { offsetInCU: 0x1D537, offset: 0x2F26E, size: 0x8, addend: 0x0, symName: __ZNSt3__16vectorINS_10unique_ptrI4BotsNS_14default_deleteIS2_EEEENS_9allocatorIS5_EEE12emplace_backIJS5_EEEvDpOT_, symObjAddr: 0x16D0, symBinAddr: 0x1000087F0, symSize: 0x60 }
  - { offsetInCU: 0x1D579, offset: 0x2F2B0, size: 0x8, addend: 0x0, symName: __ZNSt3__110unique_ptrI4BotsNS_14default_deleteIS1_EEED1B7v160006Ev, symObjAddr: 0x17C0, symBinAddr: 0x1000088E0, symSize: 0x20 }
  - { offsetInCU: 0x1D5B6, offset: 0x2F2ED, size: 0x8, addend: 0x0, symName: __ZNSt3__16vectorINS_6threadENS_9allocatorIS1_EEE12emplace_backIJM4BotsFvR6MarketRNS_5mutexEidRNS_6atomicIbEEEPS6_NS_17reference_wrapperIS7_EENSH_IS9_EERiSK_NSH_ISC_EEEEEvDpOT_, symObjAddr: 0x17E0, symBinAddr: 0x100008900, symSize: 0xC0 }
  - { offsetInCU: 0x1D670, offset: 0x2F3A7, size: 0x8, addend: 0x0, symName: __ZNSt3__16vectorINS_10unique_ptrI4BotsNS_14default_deleteIS2_EEEENS_9allocatorIS5_EEE4backB7v160006Ev, symObjAddr: 0x18A0, symBinAddr: 0x1000089C0, symSize: 0x20 }
  - { offsetInCU: 0x1D696, offset: 0x2F3CD, size: 0x8, addend: 0x0, symName: __ZNKSt3__110unique_ptrI4BotsNS_14default_deleteIS1_EEE3getB7v160006Ev, symObjAddr: 0x18C0, symBinAddr: 0x1000089E0, symSize: 0x20 }
  - { offsetInCU: 0x1D6BC, offset: 0x2F3F3, size: 0x8, addend: 0x0, symName: __ZNSt3__113unordered_mapIi4BotsNS_4hashIiEENS_8equal_toIiEENS_9allocatorINS_4pairIKiS1_EEEEE6insertB7v160006EOS9_, symObjAddr: 0x1940, symBinAddr: 0x100008A60, symSize: 0x40 }
  - { offsetInCU: 0x1D6F1, offset: 0x2F428, size: 0x8, addend: 0x0, symName: __ZNKSt3__110unique_ptrI4BotsNS_14default_deleteIS1_EEEdeB7v160006Ev, symObjAddr: 0x1980, symBinAddr: 0x100008AA0, symSize: 0x20 }
  - { offsetInCU: 0x1D71C, offset: 0x2F453, size: 0x8, addend: 0x0, symName: __ZNSt3__14pairIKi4BotsEC1B7v160006IiRS2_LPv0EEEOT_OT0_, symObjAddr: 0x19A0, symBinAddr: 0x100008AC0, symSize: 0x30 }
  - { offsetInCU: 0x1D779, offset: 0x2F4B0, size: 0x8, addend: 0x0, symName: __ZNSt3__16vectorINS_6threadENS_9allocatorIS1_EEE5beginB7v160006Ev, symObjAddr: 0x19D0, symBinAddr: 0x100008AF0, symSize: 0x30 }
  - { offsetInCU: 0x1D7A1, offset: 0x2F4D8, size: 0x8, addend: 0x0, symName: __ZNSt3__16vectorINS_6threadENS_9allocatorIS1_EEE3endB7v160006Ev, symObjAddr: 0x1A00, symBinAddr: 0x100008B20, symSize: 0x30 }
  - { offsetInCU: 0x1D7C9, offset: 0x2F500, size: 0x8, addend: 0x0, symName: __ZNKSt3__111__wrap_iterIPNS_6threadEEdeB7v160006Ev, symObjAddr: 0x1A60, symBinAddr: 0x100008B80, symSize: 0x20 }
  - { offsetInCU: 0x1D7EF, offset: 0x2F526, size: 0x8, addend: 0x0, symName: __ZNSt3__111__wrap_iterIPNS_6threadEEppB7v160006Ev, symObjAddr: 0x1A80, symBinAddr: 0x100008BA0, symSize: 0x20 }
  - { offsetInCU: 0x1D8AD, offset: 0x2F5E4, size: 0x8, addend: 0x0, symName: __ZNSt3__114basic_ofstreamIcNS_11char_traitsIcEEEC1EPKcj, symObjAddr: 0x1AA0, symBinAddr: 0x100008BC0, symSize: 0x160 }
  - { offsetInCU: 0x1D8F7, offset: 0x2F62E, size: 0x8, addend: 0x0, symName: __ZNKSt3__114basic_ofstreamIcNS_11char_traitsIcEEE7is_openEv, symObjAddr: 0x1C00, symBinAddr: 0x100008D20, symSize: 0x30 }
  - { offsetInCU: 0x1D91F, offset: 0x2F656, size: 0x8, addend: 0x0, symName: __ZNSt3__113basic_ostreamIcNS_11char_traitsIcEEElsB7v160006EPFRS3_S4_E, symObjAddr: 0x1C70, symBinAddr: 0x100008D90, symSize: 0x20 }
  - { offsetInCU: 0x1D953, offset: 0x2F68A, size: 0x8, addend: 0x0, symName: __ZNSt3__16vectorI13ExecutedTradeNS_9allocatorIS1_EEE5beginB7v160006Ev, symObjAddr: 0x1CE0, symBinAddr: 0x100008E00, symSize: 0x30 }
  - { offsetInCU: 0x1D97B, offset: 0x2F6B2, size: 0x8, addend: 0x0, symName: __ZNSt3__16vectorI13ExecutedTradeNS_9allocatorIS1_EEE3endB7v160006Ev, symObjAddr: 0x1D10, symBinAddr: 0x100008E30, symSize: 0x30 }
  - { offsetInCU: 0x1D9A3, offset: 0x2F6DA, size: 0x8, addend: 0x0, symName: __ZNKSt3__111__wrap_iterIP13ExecutedTradeEdeB7v160006Ev, symObjAddr: 0x1D70, symBinAddr: 0x100008E90, symSize: 0x20 }
  - { offsetInCU: 0x1D9C9, offset: 0x2F700, size: 0x8, addend: 0x0, symName: __ZNSt3__111__wrap_iterIP13ExecutedTradeEppB7v160006Ev, symObjAddr: 0x1D90, symBinAddr: 0x100008EB0, symSize: 0x20 }
  - { offsetInCU: 0x1D9EF, offset: 0x2F726, size: 0x8, addend: 0x0, symName: __ZNSt3__114basic_ofstreamIcNS_11char_traitsIcEEE5closeEv, symObjAddr: 0x1DB0, symBinAddr: 0x100008ED0, symSize: 0x50 }
  - { offsetInCU: 0x1DA1C, offset: 0x2F753, size: 0x8, addend: 0x0, symName: __ZNSt3__114basic_ofstreamIcNS_11char_traitsIcEEED1Ev, symObjAddr: 0x1E00, symBinAddr: 0x100008F20, symSize: 0x40 }
  - { offsetInCU: 0x1DA49, offset: 0x2F780, size: 0x8, addend: 0x0, symName: __ZNSt3__16vectorINS_10unique_ptrI4BotsNS_14default_deleteIS2_EEEENS_9allocatorIS5_EEED1B7v160006Ev, symObjAddr: 0x1E40, symBinAddr: 0x100008F60, symSize: 0x20 }
  - { offsetInCU: 0x1DA72, offset: 0x2F7A9, size: 0x8, addend: 0x0, symName: __ZNSt3__16vectorINS_6threadENS_9allocatorIS1_EEED1B7v160006Ev, symObjAddr: 0x1E60, symBinAddr: 0x100008F80, symSize: 0x20 }
  - { offsetInCU: 0x1DA9B, offset: 0x2F7D2, size: 0x8, addend: 0x0, symName: __ZN6Market18calculate_buy_rateENSt3__16chrono8durationIxNS0_5ratioILl1ELl1EEEEE, symObjAddr: 0x1E80, symBinAddr: 0x100008FA0, symSize: 0xF0 }
  - { offsetInCU: 0x1DADF, offset: 0x2F816, size: 0x8, addend: 0x0, symName: __ZNKSt3__15queueINS_6chrono10time_pointINS1_12steady_clockENS1_8durationIxNS_5ratioILl1ELl1000000000EEEEEEENS_5dequeIS8_NS_9allocatorIS8_EEEEE5emptyB7v160006Ev, symObjAddr: 0x1F70, symBinAddr: 0x100009090, symSize: 0x20 }
  - { offsetInCU: 0x1DB05, offset: 0x2F83C, size: 0x8, addend: 0x0, symName: __ZNSt3__15queueINS_6chrono10time_pointINS1_12steady_clockENS1_8durationIxNS_5ratioILl1ELl1000000000EEEEEEENS_5dequeIS8_NS_9allocatorIS8_EEEEE5frontB7v160006Ev, symObjAddr: 0x1FC0, symBinAddr: 0x1000090E0, symSize: 0x20 }
  - { offsetInCU: 0x1DB2B, offset: 0x2F862, size: 0x8, addend: 0x0, symName: __ZNSt3__15queueINS_6chrono10time_pointINS1_12steady_clockENS1_8durationIxNS_5ratioILl1ELl1000000000EEEEEEENS_5dequeIS8_NS_9allocatorIS8_EEEEE3popB7v160006Ev, symObjAddr: 0x1FE0, symBinAddr: 0x100009100, symSize: 0x20 }
  - { offsetInCU: 0x1DB51, offset: 0x2F888, size: 0x8, addend: 0x0, symName: __ZNKSt3__15queueINS_6chrono10time_pointINS1_12steady_clockENS1_8durationIxNS_5ratioILl1ELl1000000000EEEEEEENS_5dequeIS8_NS_9allocatorIS8_EEEEE4sizeB7v160006Ev, symObjAddr: 0x2000, symBinAddr: 0x100009120, symSize: 0x20 }
  - { offsetInCU: 0x1DB77, offset: 0x2F8AE, size: 0x8, addend: 0x0, symName: __ZN6Market19calculate_sell_rateENSt3__16chrono8durationIxNS0_5ratioILl1ELl1EEEEE, symObjAddr: 0x2020, symBinAddr: 0x100009140, symSize: 0xF0 }
  - { offsetInCU: 0x1DBBB, offset: 0x2F8F2, size: 0x8, addend: 0x0, symName: __ZN6Market21calculate_highest_bidEv, symObjAddr: 0x2110, symBinAddr: 0x100009230, symSize: 0xC0 }
  - { offsetInCU: 0x1DC0E, offset: 0x2F945, size: 0x8, addend: 0x0, symName: __ZNSt3__16vectorI12MarketMakersNS_9allocatorIS1_EEEixB7v160006Em, symObjAddr: 0x21D0, symBinAddr: 0x1000092F0, symSize: 0x20 }
  - { offsetInCU: 0x1DC45, offset: 0x2F97C, size: 0x8, addend: 0x0, symName: __ZNK12MarketMakers6getBidEv, symObjAddr: 0x21F0, symBinAddr: 0x100009310, symSize: 0x20 }
  - { offsetInCU: 0x1DC6B, offset: 0x2F9A2, size: 0x8, addend: 0x0, symName: __ZN6Market20calculate_lowest_askEv, symObjAddr: 0x2240, symBinAddr: 0x100009330, symSize: 0xD0 }
  - { offsetInCU: 0x1DCBE, offset: 0x2F9F5, size: 0x8, addend: 0x0, symName: __ZNK12MarketMakers6getAskEv, symObjAddr: 0x2310, symBinAddr: 0x100009400, symSize: 0x20 }
  - { offsetInCU: 0x1DCE4, offset: 0x2FA1B, size: 0x8, addend: 0x0, symName: __ZNSt3__16chrono8durationIxNS_5ratioILl1ELl1EEEEC1B7v160006IiEERKT_PNS_9enable_ifIXaasr14is_convertibleIS8_xEE5valueooL_ZNS_17integral_constantIbLb0EE5valueEEntsr23treat_as_floating_pointIS6_EE5valueEvE4typeE, symObjAddr: 0x2330, symBinAddr: 0x100009420, symSize: 0x30 }
  - { offsetInCU: 0x1DD2F, offset: 0x2FA66, size: 0x8, addend: 0x0, symName: __ZN12MarketMakers6setBidEd, symObjAddr: 0x2360, symBinAddr: 0x100009450, symSize: 0x20 }
  - { offsetInCU: 0x1DD63, offset: 0x2FA9A, size: 0x8, addend: 0x0, symName: __ZN12MarketMakers6setAskEd, symObjAddr: 0x2380, symBinAddr: 0x100009470, symSize: 0x20 }
  - { offsetInCU: 0x1DD9C, offset: 0x2FAD3, size: 0x8, addend: 0x0, symName: __ZNSt3__112basic_stringIcNS_11char_traitsIcEENS_9allocatorIcEEEC1B7v160006IDnEEPKc, symObjAddr: 0x23A0, symBinAddr: 0x100009490, symSize: 0x30 }
  - { offsetInCU: 0x1DDD9, offset: 0x2FB10, size: 0x8, addend: 0x0, symName: __ZNSt3__112basic_stringIcNS_11char_traitsIcEENS_9allocatorIcEEEC2B7v160006IDnEEPKc, symObjAddr: 0x23D0, symBinAddr: 0x1000094C0, symSize: 0x60 }
  - { offsetInCU: 0x1DE1B, offset: 0x2FB52, size: 0x8, addend: 0x0, symName: __ZNSt3__117__compressed_pairINS_12basic_stringIcNS_11char_traitsIcEENS_9allocatorIcEEE5__repES5_EC1B7v160006INS_18__default_init_tagESA_EEOT_OT0_, symObjAddr: 0x2430, symBinAddr: 0x100009520, symSize: 0x30 }
  - { offsetInCU: 0x1DE72, offset: 0x2FBA9, size: 0x8, addend: 0x0, symName: __ZNSt3__111char_traitsIcE6lengthEPKc, symObjAddr: 0x2460, symBinAddr: 0x100009550, symSize: 0x30 }
  - { offsetInCU: 0x1DE95, offset: 0x2FBCC, size: 0x8, addend: 0x0, symName: __ZNSt3__117__compressed_pairINS_12basic_stringIcNS_11char_traitsIcEENS_9allocatorIcEEE5__repES5_EC2B7v160006INS_18__default_init_tagESA_EEOT_OT0_, symObjAddr: 0x24A0, symBinAddr: 0x100009590, symSize: 0x30 }
  - { offsetInCU: 0x1DEEC, offset: 0x2FC23, size: 0x8, addend: 0x0, symName: __ZNSt3__122__compressed_pair_elemINS_12basic_stringIcNS_11char_traitsIcEENS_9allocatorIcEEE5__repELi0ELb0EEC2B7v160006ENS_18__default_init_tagE, symObjAddr: 0x24D0, symBinAddr: 0x1000095C0, symSize: 0x10 }
  - { offsetInCU: 0x1DF20, offset: 0x2FC57, size: 0x8, addend: 0x0, symName: __ZNSt3__122__compressed_pair_elemINS_9allocatorIcEELi1ELb1EEC2B7v160006ENS_18__default_init_tagE, symObjAddr: 0x24E0, symBinAddr: 0x1000095D0, symSize: 0x20 }
  - { offsetInCU: 0x1DF54, offset: 0x2FC8B, size: 0x8, addend: 0x0, symName: __ZNSt3__19allocatorIcEC2B7v160006Ev, symObjAddr: 0x2500, symBinAddr: 0x1000095F0, symSize: 0x20 }
  - { offsetInCU: 0x1DF7D, offset: 0x2FCB4, size: 0x8, addend: 0x0, symName: __ZNSt3__116__non_trivial_ifILb1ENS_9allocatorIcEEEC2B7v160006Ev, symObjAddr: 0x2520, symBinAddr: 0x100009610, symSize: 0x10 }
  - { offsetInCU: 0x1DFA6, offset: 0x2FCDD, size: 0x8, addend: 0x0, symName: __ZNKSt3__16chrono8durationIxNS_5ratioILl1ELl1000000000EEEE5countB7v160006Ev, symObjAddr: 0x25B0, symBinAddr: 0x100009690, symSize: 0x20 }
  - { offsetInCU: 0x1DFD6, offset: 0x2FD0D, size: 0x8, addend: 0x0, symName: __ZNSt3__16chrono8durationIxNS_5ratioILl1ELl1EEEEC1B7v160006IxEERKT_PNS_9enable_ifIXaasr14is_convertibleIS8_xEE5valueooL_ZNS_17integral_constantIbLb0EE5valueEEntsr23treat_as_floating_pointIS6_EE5valueEvE4typeE, symObjAddr: 0x25D0, symBinAddr: 0x1000096B0, symSize: 0x30 }
  - { offsetInCU: 0x1E021, offset: 0x2FD58, size: 0x8, addend: 0x0, symName: __ZNSt3__16chrono8durationIxNS_5ratioILl1ELl1EEEEC2B7v160006IxEERKT_PNS_9enable_ifIXaasr14is_convertibleIS8_xEE5valueooL_ZNS_17integral_constantIbLb0EE5valueEEntsr23treat_as_floating_pointIS6_EE5valueEvE4typeE, symObjAddr: 0x2600, symBinAddr: 0x1000096E0, symSize: 0x20 }
  - { offsetInCU: 0x1E06C, offset: 0x2FDA3, size: 0x8, addend: 0x0, symName: __ZNKSt3__16chrono10time_pointINS0_12steady_clockENS0_8durationIxNS_5ratioILl1ELl1000000000EEEEEE16time_since_epochB7v160006Ev, symObjAddr: 0x2690, symBinAddr: 0x100009770, symSize: 0x20 }
  - { offsetInCU: 0x1E092, offset: 0x2FDC9, size: 0x8, addend: 0x0, symName: __ZNSt3__16chrono8durationIxNS_5ratioILl1ELl1000000000EEEEC1B7v160006IxEERKT_PNS_9enable_ifIXaasr14is_convertibleIS8_xEE5valueooL_ZNS_17integral_constantIbLb0EE5valueEEntsr23treat_as_floating_pointIS6_EE5valueEvE4typeE, symObjAddr: 0x26B0, symBinAddr: 0x100009790, symSize: 0x30 }
  - { offsetInCU: 0x1E0DD, offset: 0x2FE14, size: 0x8, addend: 0x0, symName: __ZNSt3__16chrono8durationIxNS_5ratioILl1ELl1000000000EEEEC2B7v160006IxEERKT_PNS_9enable_ifIXaasr14is_convertibleIS8_xEE5valueooL_ZNS_17integral_constantIbLb0EE5valueEEntsr23treat_as_floating_pointIS6_EE5valueEvE4typeE, symObjAddr: 0x26E0, symBinAddr: 0x1000097C0, symSize: 0x20 }
  - { offsetInCU: 0x1E128, offset: 0x2FE5F, size: 0x8, addend: 0x0, symName: __ZNSt3__16chrono8durationIxNS_5ratioILl1ELl1000EEEEC2B7v160006IiEERKT_PNS_9enable_ifIXaasr14is_convertibleIS8_xEE5valueooL_ZNS_17integral_constantIbLb0EE5valueEEntsr23treat_as_floating_pointIS6_EE5valueEvE4typeE, symObjAddr: 0x2700, symBinAddr: 0x1000097E0, symSize: 0x20 }
  - { offsetInCU: 0x1E173, offset: 0x2FEAA, size: 0x8, addend: 0x0, symName: __ZNSt3__15mutexC2B7v160006Ev, symObjAddr: 0x2720, symBinAddr: 0x100009800, symSize: 0x30 }
  - { offsetInCU: 0x1E19C, offset: 0x2FED3, size: 0x8, addend: 0x0, symName: __ZNSt3__14pairIKi4BotsEC2B7v160006IiRS2_LPv0EEEOT_OT0_, symObjAddr: 0x2750, symBinAddr: 0x100009830, symSize: 0x40 }
  - { offsetInCU: 0x1E1F9, offset: 0x2FF30, size: 0x8, addend: 0x0, symName: __ZNKSt3__111__wrap_iterIPNS_6threadEE4baseB7v160006Ev, symObjAddr: 0x27D0, symBinAddr: 0x1000098B0, symSize: 0x20 }
  - { offsetInCU: 0x1E21F, offset: 0x2FF56, size: 0x8, addend: 0x0, symName: __ZNKSt3__111__wrap_iterIP13ExecutedTradeE4baseB7v160006Ev, symObjAddr: 0x2830, symBinAddr: 0x100009910, symSize: 0x20 }
  - { offsetInCU: 0x1E245, offset: 0x2FF7C, size: 0x8, addend: 0x0, symName: __ZNSt3__114basic_ofstreamIcNS_11char_traitsIcEEED2Ev, symObjAddr: 0x2850, symBinAddr: 0x100009930, symSize: 0x60 }
  - { offsetInCU: 0x1E27F, offset: 0x2FFB6, size: 0x8, addend: 0x0, symName: __ZTv0_n24_NSt3__114basic_ofstreamIcNS_11char_traitsIcEEED1Ev, symObjAddr: 0x28B0, symBinAddr: 0x100009990, symSize: 0x20 }
  - { offsetInCU: 0x1E296, offset: 0x2FFCD, size: 0x8, addend: 0x0, symName: __ZNSt3__16chrono8durationIxNS_5ratioILl1ELl1000000000EEEEC1B7v160006IxNS2_ILl1ELl1EEEEERKNS1_IT_T0_EEPNS_9enable_ifIXaasr13__no_overflowIS8_S3_EE5valueooL_ZNS_17integral_constantIbLb0EE5valueEEaaeqsr13__no_overflowIS8_S3_E4typeE3denLi1Entsr23treat_as_floating_pointIS7_EE5valueEvE4typeE, symObjAddr: 0x2960, symBinAddr: 0x100009A40, symSize: 0x30 }
  - { offsetInCU: 0x1E2EB, offset: 0x30022, size: 0x8, addend: 0x0, symName: __ZNSt3__16chrono8durationIxNS_5ratioILl1ELl1000000000EEEEC2B7v160006IxNS2_ILl1ELl1EEEEERKNS1_IT_T0_EEPNS_9enable_ifIXaasr13__no_overflowIS8_S3_EE5valueooL_ZNS_17integral_constantIbLb0EE5valueEEaaeqsr13__no_overflowIS8_S3_E4typeE3denLi1Entsr23treat_as_floating_pointIS7_EE5valueEvE4typeE, symObjAddr: 0x2990, symBinAddr: 0x100009A70, symSize: 0x50 }
  - { offsetInCU: 0x1E340, offset: 0x30077, size: 0x8, addend: 0x0, symName: __ZNSt3__16chrono8durationIxNS_5ratioILl1ELl1EEEEC2B7v160006IiEERKT_PNS_9enable_ifIXaasr14is_convertibleIS8_xEE5valueooL_ZNS_17integral_constantIbLb0EE5valueEEntsr23treat_as_floating_pointIS6_EE5valueEvE4typeE, symObjAddr: 0x2A50, symBinAddr: 0x100009B30, symSize: 0x20 }
  - { offsetInCU: 0x1E38B, offset: 0x300C2, size: 0x8, addend: 0x0, symName: __ZNSt3__16vectorI12MarketMakersNS_9allocatorIS1_EEEC2B7v160006EOS4_, symObjAddr: 0x2A70, symBinAddr: 0x100009B50, symSize: 0xF0 }
  - { offsetInCU: 0x1E3D0, offset: 0x30107, size: 0x8, addend: 0x0, symName: __ZNSt3__117__compressed_pairIP12MarketMakersNS_9allocatorIS1_EEEC1B7v160006IDnS4_EEOT_OT0_, symObjAddr: 0x2B80, symBinAddr: 0x100009C40, symSize: 0x30 }
  - { offsetInCU: 0x1E427, offset: 0x3015E, size: 0x8, addend: 0x0, symName: __ZNSt3__117__compressed_pairIP12MarketMakersNS_9allocatorIS1_EEEC2B7v160006IDnS4_EEOT_OT0_, symObjAddr: 0x2C20, symBinAddr: 0x100009C80, symSize: 0x40 }
  - { offsetInCU: 0x1E47E, offset: 0x301B5, size: 0x8, addend: 0x0, symName: __ZNSt3__122__compressed_pair_elemINS_9allocatorI12MarketMakersEELi1ELb1EEC2B7v160006IS3_vEEOT_, symObjAddr: 0x2C80, symBinAddr: 0x100009CC0, symSize: 0x10 }
  - { offsetInCU: 0x1E4BF, offset: 0x301F6, size: 0x8, addend: 0x0, symName: __ZNSt3__114priority_queueI5OrderNS_6vectorIS1_NS_9allocatorIS1_EEEE15CompareBuyOrderEC2B7v160006Ev, symObjAddr: 0x2CC0, symBinAddr: 0x100009CD0, symSize: 0x20 }
  - { offsetInCU: 0x1E4E8, offset: 0x3021F, size: 0x8, addend: 0x0, symName: __ZNSt3__16vectorI5OrderNS_9allocatorIS1_EEEC1B7v160006Ev, symObjAddr: 0x2CE0, symBinAddr: 0x100009CF0, symSize: 0x20 }
  - { offsetInCU: 0x1E511, offset: 0x30248, size: 0x8, addend: 0x0, symName: __ZNSt3__16vectorI5OrderNS_9allocatorIS1_EEEC2B7v160006Ev, symObjAddr: 0x2D00, symBinAddr: 0x100009D10, symSize: 0x60 }
  - { offsetInCU: 0x1E53A, offset: 0x30271, size: 0x8, addend: 0x0, symName: __ZNSt3__117__compressed_pairIP5OrderNS_9allocatorIS1_EEEC1B7v160006IDnNS_18__default_init_tagEEEOT_OT0_, symObjAddr: 0x2D60, symBinAddr: 0x100009D70, symSize: 0x30 }
  - { offsetInCU: 0x1E591, offset: 0x302C8, size: 0x8, addend: 0x0, symName: __ZNSt3__117__compressed_pairIP5OrderNS_9allocatorIS1_EEEC2B7v160006IDnNS_18__default_init_tagEEEOT_OT0_, symObjAddr: 0x2DA0, symBinAddr: 0x100009DB0, symSize: 0x40 }
  - { offsetInCU: 0x1E5E8, offset: 0x3031F, size: 0x8, addend: 0x0, symName: __ZNSt3__122__compressed_pair_elemIP5OrderLi0ELb0EEC2B7v160006IDnvEEOT_, symObjAddr: 0x2DE0, symBinAddr: 0x100009DF0, symSize: 0x20 }
  - { offsetInCU: 0x1E629, offset: 0x30360, size: 0x8, addend: 0x0, symName: __ZNSt3__122__compressed_pair_elemINS_9allocatorI5OrderEELi1ELb1EEC2B7v160006ENS_18__default_init_tagE, symObjAddr: 0x2E00, symBinAddr: 0x100009E10, symSize: 0x20 }
  - { offsetInCU: 0x1E65D, offset: 0x30394, size: 0x8, addend: 0x0, symName: __ZNSt3__19allocatorI5OrderEC2B7v160006Ev, symObjAddr: 0x2E20, symBinAddr: 0x100009E30, symSize: 0x20 }
  - { offsetInCU: 0x1E686, offset: 0x303BD, size: 0x8, addend: 0x0, symName: __ZNSt3__116__non_trivial_ifILb1ENS_9allocatorI5OrderEEEC2B7v160006Ev, symObjAddr: 0x2E40, symBinAddr: 0x100009E50, symSize: 0x10 }
  - { offsetInCU: 0x1E6AF, offset: 0x303E6, size: 0x8, addend: 0x0, symName: __ZNSt3__114priority_queueI5OrderNS_6vectorIS1_NS_9allocatorIS1_EEEE16CompareSellOrderEC2B7v160006Ev, symObjAddr: 0x2E50, symBinAddr: 0x100009E60, symSize: 0x20 }
  - { offsetInCU: 0x1E6D8, offset: 0x3040F, size: 0x8, addend: 0x0, symName: __ZNSt3__16vectorI13ExecutedTradeNS_9allocatorIS1_EEEC2B7v160006Ev, symObjAddr: 0x2E70, symBinAddr: 0x100009E80, symSize: 0x60 }
  - { offsetInCU: 0x1E701, offset: 0x30438, size: 0x8, addend: 0x0, symName: __ZNSt3__117__compressed_pairIP13ExecutedTradeNS_9allocatorIS1_EEEC1B7v160006IDnNS_18__default_init_tagEEEOT_OT0_, symObjAddr: 0x2ED0, symBinAddr: 0x100009EE0, symSize: 0x30 }
  - { offsetInCU: 0x1E758, offset: 0x3048F, size: 0x8, addend: 0x0, symName: __ZNSt3__117__compressed_pairIP13ExecutedTradeNS_9allocatorIS1_EEEC2B7v160006IDnNS_18__default_init_tagEEEOT_OT0_, symObjAddr: 0x2F10, symBinAddr: 0x100009F20, symSize: 0x40 }
  - { offsetInCU: 0x1E7AF, offset: 0x304E6, size: 0x8, addend: 0x0, symName: __ZNSt3__122__compressed_pair_elemIP13ExecutedTradeLi0ELb0EEC2B7v160006IDnvEEOT_, symObjAddr: 0x2F50, symBinAddr: 0x100009F60, symSize: 0x20 }
  - { offsetInCU: 0x1E7F0, offset: 0x30527, size: 0x8, addend: 0x0, symName: __ZNSt3__122__compressed_pair_elemINS_9allocatorI13ExecutedTradeEELi1ELb1EEC2B7v160006ENS_18__default_init_tagE, symObjAddr: 0x2F70, symBinAddr: 0x100009F80, symSize: 0x20 }
  - { offsetInCU: 0x1E824, offset: 0x3055B, size: 0x8, addend: 0x0, symName: __ZNSt3__19allocatorI13ExecutedTradeEC2B7v160006Ev, symObjAddr: 0x2F90, symBinAddr: 0x100009FA0, symSize: 0x20 }
  - { offsetInCU: 0x1E84D, offset: 0x30584, size: 0x8, addend: 0x0, symName: __ZNSt3__116__non_trivial_ifILb1ENS_9allocatorI13ExecutedTradeEEEC2B7v160006Ev, symObjAddr: 0x2FB0, symBinAddr: 0x100009FC0, symSize: 0x10 }
  - { offsetInCU: 0x1E876, offset: 0x305AD, size: 0x8, addend: 0x0, symName: __ZNSt3__113unordered_mapIi4BotsNS_4hashIiEENS_8equal_toIiEENS_9allocatorINS_4pairIKiS1_EEEEEC2B7v160006Ev, symObjAddr: 0x2FC0, symBinAddr: 0x100009FD0, symSize: 0x40 }
  - { offsetInCU: 0x1E89F, offset: 0x305D6, size: 0x8, addend: 0x0, symName: __ZNSt3__112__hash_tableINS_17__hash_value_typeIi4BotsEENS_22__unordered_map_hasherIiS3_NS_4hashIiEENS_8equal_toIiEELb1EEENS_21__unordered_map_equalIiS3_S8_S6_Lb1EEENS_9allocatorIS3_EEEC1Ev, symObjAddr: 0x3000, symBinAddr: 0x10000A010, symSize: 0x20 }
  - { offsetInCU: 0x1E8CB, offset: 0x30602, size: 0x8, addend: 0x0, symName: __ZNSt3__112__hash_tableINS_17__hash_value_typeIi4BotsEENS_22__unordered_map_hasherIiS3_NS_4hashIiEENS_8equal_toIiEELb1EEENS_21__unordered_map_equalIiS3_S8_S6_Lb1EEENS_9allocatorIS3_EEEC2Ev, symObjAddr: 0x3030, symBinAddr: 0x10000A040, symSize: 0x80 }
  - { offsetInCU: 0x1E8F7, offset: 0x3062E, size: 0x8, addend: 0x0, symName: __ZNSt3__110unique_ptrIA_PNS_16__hash_node_baseIPNS_11__hash_nodeINS_17__hash_value_typeIi4BotsEEPvEEEENS_25__bucket_list_deallocatorINS_9allocatorISA_EEEEEC1B7v160006ILb1EvEEv, symObjAddr: 0x30B0, symBinAddr: 0x10000A0C0, symSize: 0x20 }
  - { offsetInCU: 0x1E92B, offset: 0x30662, size: 0x8, addend: 0x0, symName: __ZNSt3__117__compressed_pairINS_16__hash_node_baseIPNS_11__hash_nodeINS_17__hash_value_typeIi4BotsEEPvEEEENS_9allocatorIS7_EEEC1B7v160006ILb1EvEEv, symObjAddr: 0x30D0, symBinAddr: 0x10000A0E0, symSize: 0x20 }
  - { offsetInCU: 0x1E95F, offset: 0x30696, size: 0x8, addend: 0x0, symName: __ZNSt3__117__compressed_pairImNS_22__unordered_map_hasherIiNS_17__hash_value_typeIi4BotsEENS_4hashIiEENS_8equal_toIiEELb1EEEEC1B7v160006IiNS_18__default_init_tagEEEOT_OT0_, symObjAddr: 0x30F0, symBinAddr: 0x10000A100, symSize: 0x30 }
  - { offsetInCU: 0x1E9BB, offset: 0x306F2, size: 0x8, addend: 0x0, symName: __ZNSt3__117__compressed_pairIfNS_21__unordered_map_equalIiNS_17__hash_value_typeIi4BotsEENS_8equal_toIiEENS_4hashIiEELb1EEEEC1B7v160006IfNS_18__default_init_tagEEEOT_OT0_, symObjAddr: 0x3120, symBinAddr: 0x10000A130, symSize: 0x30 }
  - { offsetInCU: 0x1EA12, offset: 0x30749, size: 0x8, addend: 0x0, symName: __ZNSt3__110unique_ptrIA_PNS_16__hash_node_baseIPNS_11__hash_nodeINS_17__hash_value_typeIi4BotsEEPvEEEENS_25__bucket_list_deallocatorINS_9allocatorISA_EEEEEC2B7v160006ILb1EvEEv, symObjAddr: 0x3150, symBinAddr: 0x10000A160, symSize: 0x30 }
  - { offsetInCU: 0x1EA4B, offset: 0x30782, size: 0x8, addend: 0x0, symName: __ZNSt3__117__compressed_pairIPPNS_16__hash_node_baseIPNS_11__hash_nodeINS_17__hash_value_typeIi4BotsEEPvEEEENS_25__bucket_list_deallocatorINS_9allocatorISA_EEEEEC1B7v160006INS_16__value_init_tagESI_EEOT_OT0_, symObjAddr: 0x3180, symBinAddr: 0x10000A190, symSize: 0x30 }
  - { offsetInCU: 0x1EAA2, offset: 0x307D9, size: 0x8, addend: 0x0, symName: __ZNSt3__117__compressed_pairIPPNS_16__hash_node_baseIPNS_11__hash_nodeINS_17__hash_value_typeIi4BotsEEPvEEEENS_25__bucket_list_deallocatorINS_9allocatorISA_EEEEEC2B7v160006INS_16__value_init_tagESI_EEOT_OT0_, symObjAddr: 0x31B0, symBinAddr: 0x10000A1C0, symSize: 0x40 }
  - { offsetInCU: 0x1EAF9, offset: 0x30830, size: 0x8, addend: 0x0, symName: __ZNSt3__122__compressed_pair_elemIPPNS_16__hash_node_baseIPNS_11__hash_nodeINS_17__hash_value_typeIi4BotsEEPvEEEELi0ELb0EEC2B7v160006ENS_16__value_init_tagE, symObjAddr: 0x31F0, symBinAddr: 0x10000A200, symSize: 0x20 }
  - { offsetInCU: 0x1EB2D, offset: 0x30864, size: 0x8, addend: 0x0, symName: __ZNSt3__122__compressed_pair_elemINS_25__bucket_list_deallocatorINS_9allocatorIPNS_16__hash_node_baseIPNS_11__hash_nodeINS_17__hash_value_typeIi4BotsEEPvEEEEEEEELi1ELb0EEC2B7v160006ENS_16__value_init_tagE, symObjAddr: 0x3210, symBinAddr: 0x10000A220, symSize: 0x20 }
  - { offsetInCU: 0x1EB61, offset: 0x30898, size: 0x8, addend: 0x0, symName: __ZNSt3__125__bucket_list_deallocatorINS_9allocatorIPNS_16__hash_node_baseIPNS_11__hash_nodeINS_17__hash_value_typeIi4BotsEEPvEEEEEEEC1B7v160006Ev, symObjAddr: 0x3230, symBinAddr: 0x10000A240, symSize: 0x20 }
  - { offsetInCU: 0x1EB8A, offset: 0x308C1, size: 0x8, addend: 0x0, symName: __ZNSt3__125__bucket_list_deallocatorINS_9allocatorIPNS_16__hash_node_baseIPNS_11__hash_nodeINS_17__hash_value_typeIi4BotsEEPvEEEEEEEC2B7v160006Ev, symObjAddr: 0x3250, symBinAddr: 0x10000A260, symSize: 0x40 }
  - { offsetInCU: 0x1EBB3, offset: 0x308EA, size: 0x8, addend: 0x0, symName: __ZNSt3__117__compressed_pairImNS_9allocatorIPNS_16__hash_node_baseIPNS_11__hash_nodeINS_17__hash_value_typeIi4BotsEEPvEEEEEEEC1B7v160006IiNS_18__default_init_tagEEEOT_OT0_, symObjAddr: 0x3290, symBinAddr: 0x10000A2A0, symSize: 0x30 }
  - { offsetInCU: 0x1EC0A, offset: 0x30941, size: 0x8, addend: 0x0, symName: __ZNSt3__117__compressed_pairImNS_9allocatorIPNS_16__hash_node_baseIPNS_11__hash_nodeINS_17__hash_value_typeIi4BotsEEPvEEEEEEEC2B7v160006IiNS_18__default_init_tagEEEOT_OT0_, symObjAddr: 0x32C0, symBinAddr: 0x10000A2D0, symSize: 0x40 }
  - { offsetInCU: 0x1EC61, offset: 0x30998, size: 0x8, addend: 0x0, symName: __ZNSt3__122__compressed_pair_elemImLi0ELb0EEC2B7v160006IivEEOT_, symObjAddr: 0x3300, symBinAddr: 0x10000A310, symSize: 0x20 }
  - { offsetInCU: 0x1ECA2, offset: 0x309D9, size: 0x8, addend: 0x0, symName: __ZNSt3__122__compressed_pair_elemINS_9allocatorIPNS_16__hash_node_baseIPNS_11__hash_nodeINS_17__hash_value_typeIi4BotsEEPvEEEEEELi1ELb1EEC2B7v160006ENS_18__default_init_tagE, symObjAddr: 0x3320, symBinAddr: 0x10000A330, symSize: 0x20 }
  - { offsetInCU: 0x1ECD6, offset: 0x30A0D, size: 0x8, addend: 0x0, symName: __ZNSt3__19allocatorIPNS_16__hash_node_baseIPNS_11__hash_nodeINS_17__hash_value_typeIi4BotsEEPvEEEEEC2B7v160006Ev, symObjAddr: 0x3340, symBinAddr: 0x10000A350, symSize: 0x20 }
  - { offsetInCU: 0x1ECFF, offset: 0x30A36, size: 0x8, addend: 0x0, symName: __ZNSt3__116__non_trivial_ifILb1ENS_9allocatorIPNS_16__hash_node_baseIPNS_11__hash_nodeINS_17__hash_value_typeIi4BotsEEPvEEEEEEEC2B7v160006Ev, symObjAddr: 0x3360, symBinAddr: 0x10000A370, symSize: 0x10 }
  - { offsetInCU: 0x1ED28, offset: 0x30A5F, size: 0x8, addend: 0x0, symName: __ZNSt3__117__compressed_pairINS_16__hash_node_baseIPNS_11__hash_nodeINS_17__hash_value_typeIi4BotsEEPvEEEENS_9allocatorIS7_EEEC2B7v160006ILb1EvEEv, symObjAddr: 0x3370, symBinAddr: 0x10000A380, symSize: 0x30 }
  - { offsetInCU: 0x1ED5C, offset: 0x30A93, size: 0x8, addend: 0x0, symName: __ZNSt3__122__compressed_pair_elemINS_16__hash_node_baseIPNS_11__hash_nodeINS_17__hash_value_typeIi4BotsEEPvEEEELi0ELb0EEC2B7v160006ENS_16__value_init_tagE, symObjAddr: 0x33A0, symBinAddr: 0x10000A3B0, symSize: 0x20 }
  - { offsetInCU: 0x1ED90, offset: 0x30AC7, size: 0x8, addend: 0x0, symName: __ZNSt3__122__compressed_pair_elemINS_9allocatorINS_11__hash_nodeINS_17__hash_value_typeIi4BotsEEPvEEEELi1ELb1EEC2B7v160006ENS_16__value_init_tagE, symObjAddr: 0x33C0, symBinAddr: 0x10000A3D0, symSize: 0x20 }
  - { offsetInCU: 0x1EDC4, offset: 0x30AFB, size: 0x8, addend: 0x0, symName: __ZNSt3__116__hash_node_baseIPNS_11__hash_nodeINS_17__hash_value_typeIi4BotsEEPvEEEC1B7v160006Ev, symObjAddr: 0x33E0, symBinAddr: 0x10000A3F0, symSize: 0x20 }
  - { offsetInCU: 0x1EDED, offset: 0x30B24, size: 0x8, addend: 0x0, symName: __ZNSt3__116__hash_node_baseIPNS_11__hash_nodeINS_17__hash_value_typeIi4BotsEEPvEEEC2B7v160006Ev, symObjAddr: 0x3400, symBinAddr: 0x10000A410, symSize: 0x20 }
  - { offsetInCU: 0x1EE16, offset: 0x30B4D, size: 0x8, addend: 0x0, symName: __ZNSt3__19allocatorINS_11__hash_nodeINS_17__hash_value_typeIi4BotsEEPvEEEC2B7v160006Ev, symObjAddr: 0x3420, symBinAddr: 0x10000A430, symSize: 0x20 }
  - { offsetInCU: 0x1EE3F, offset: 0x30B76, size: 0x8, addend: 0x0, symName: __ZNSt3__116__non_trivial_ifILb1ENS_9allocatorINS_11__hash_nodeINS_17__hash_value_typeIi4BotsEEPvEEEEEC2B7v160006Ev, symObjAddr: 0x3440, symBinAddr: 0x10000A450, symSize: 0x10 }
  - { offsetInCU: 0x1EE68, offset: 0x30B9F, size: 0x8, addend: 0x0, symName: __ZNSt3__117__compressed_pairImNS_22__unordered_map_hasherIiNS_17__hash_value_typeIi4BotsEENS_4hashIiEENS_8equal_toIiEELb1EEEEC2B7v160006IiNS_18__default_init_tagEEEOT_OT0_, symObjAddr: 0x3450, symBinAddr: 0x10000A460, symSize: 0x40 }
  - { offsetInCU: 0x1EEBF, offset: 0x30BF6, size: 0x8, addend: 0x0, symName: __ZNSt3__122__compressed_pair_elemINS_22__unordered_map_hasherIiNS_17__hash_value_typeIi4BotsEENS_4hashIiEENS_8equal_toIiEELb1EEELi1ELb1EEC2B7v160006ENS_18__default_init_tagE, symObjAddr: 0x3490, symBinAddr: 0x10000A4A0, symSize: 0x20 }
  - { offsetInCU: 0x1EEF3, offset: 0x30C2A, size: 0x8, addend: 0x0, symName: __ZNSt3__122__unordered_map_hasherIiNS_17__hash_value_typeIi4BotsEENS_4hashIiEENS_8equal_toIiEELb1EEC2B7v160006Ev, symObjAddr: 0x34B0, symBinAddr: 0x10000A4C0, symSize: 0x10 }
  - { offsetInCU: 0x1EF1C, offset: 0x30C53, size: 0x8, addend: 0x0, symName: __ZNSt3__117__compressed_pairIfNS_21__unordered_map_equalIiNS_17__hash_value_typeIi4BotsEENS_8equal_toIiEENS_4hashIiEELb1EEEEC2B7v160006IfNS_18__default_init_tagEEEOT_OT0_, symObjAddr: 0x34C0, symBinAddr: 0x10000A4D0, symSize: 0x40 }
  - { offsetInCU: 0x1EF73, offset: 0x30CAA, size: 0x8, addend: 0x0, symName: __ZNSt3__122__compressed_pair_elemIfLi0ELb0EEC2B7v160006IfvEEOT_, symObjAddr: 0x3500, symBinAddr: 0x10000A510, symSize: 0x20 }
  - { offsetInCU: 0x1EFB4, offset: 0x30CEB, size: 0x8, addend: 0x0, symName: __ZNSt3__122__compressed_pair_elemINS_21__unordered_map_equalIiNS_17__hash_value_typeIi4BotsEENS_8equal_toIiEENS_4hashIiEELb1EEELi1ELb1EEC2B7v160006ENS_18__default_init_tagE, symObjAddr: 0x3520, symBinAddr: 0x10000A530, symSize: 0x20 }
  - { offsetInCU: 0x1EFE8, offset: 0x30D1F, size: 0x8, addend: 0x0, symName: __ZNSt3__121__unordered_map_equalIiNS_17__hash_value_typeIi4BotsEENS_8equal_toIiEENS_4hashIiEELb1EEC2B7v160006Ev, symObjAddr: 0x3540, symBinAddr: 0x10000A550, symSize: 0x10 }
  - { offsetInCU: 0x1F011, offset: 0x30D48, size: 0x8, addend: 0x0, symName: __ZNSt3__15queueINS_6chrono10time_pointINS1_12steady_clockENS1_8durationIxNS_5ratioILl1ELl1000000000EEEEEEENS_5dequeIS8_NS_9allocatorIS8_EEEEEC2B7v160006Ev, symObjAddr: 0x3550, symBinAddr: 0x10000A560, symSize: 0x20 }
  - { offsetInCU: 0x1F03A, offset: 0x30D71, size: 0x8, addend: 0x0, symName: __ZNSt3__15dequeINS_6chrono10time_pointINS1_12steady_clockENS1_8durationIxNS_5ratioILl1ELl1000000000EEEEEEENS_9allocatorIS8_EEEC1B7v160006Ev, symObjAddr: 0x3570, symBinAddr: 0x10000A580, symSize: 0x20 }
  - { offsetInCU: 0x1F063, offset: 0x30D9A, size: 0x8, addend: 0x0, symName: __ZNSt3__15dequeINS_6chrono10time_pointINS1_12steady_clockENS1_8durationIxNS_5ratioILl1ELl1000000000EEEEEEENS_9allocatorIS8_EEEC2B7v160006Ev, symObjAddr: 0x3590, symBinAddr: 0x10000A5A0, symSize: 0x50 }
  - { offsetInCU: 0x1F08C, offset: 0x30DC3, size: 0x8, addend: 0x0, symName: __ZNSt3__114__split_bufferIPNS_6chrono10time_pointINS1_12steady_clockENS1_8durationIxNS_5ratioILl1ELl1000000000EEEEEEENS_9allocatorIS9_EEEC1Ev, symObjAddr: 0x35E0, symBinAddr: 0x10000A5F0, symSize: 0x20 }
  - { offsetInCU: 0x1F0B8, offset: 0x30DEF, size: 0x8, addend: 0x0, symName: __ZNSt3__117__compressed_pairImNS_9allocatorINS_6chrono10time_pointINS2_12steady_clockENS2_8durationIxNS_5ratioILl1ELl1000000000EEEEEEEEEEC1B7v160006IiNS_18__default_init_tagEEEOT_OT0_, symObjAddr: 0x3600, symBinAddr: 0x10000A610, symSize: 0x30 }
  - { offsetInCU: 0x1F10F, offset: 0x30E46, size: 0x8, addend: 0x0, symName: __ZNSt3__114__split_bufferIPNS_6chrono10time_pointINS1_12steady_clockENS1_8durationIxNS_5ratioILl1ELl1000000000EEEEEEENS_9allocatorIS9_EEEC2Ev, symObjAddr: 0x3630, symBinAddr: 0x10000A640, symSize: 0x60 }
  - { offsetInCU: 0x1F13B, offset: 0x30E72, size: 0x8, addend: 0x0, symName: __ZNSt3__117__compressed_pairIPPNS_6chrono10time_pointINS1_12steady_clockENS1_8durationIxNS_5ratioILl1ELl1000000000EEEEEEENS_9allocatorIS9_EEEC1B7v160006IDnNS_18__default_init_tagEEEOT_OT0_, symObjAddr: 0x3690, symBinAddr: 0x10000A6A0, symSize: 0x30 }
  - { offsetInCU: 0x1F192, offset: 0x30EC9, size: 0x8, addend: 0x0, symName: __ZNSt3__117__compressed_pairIPPNS_6chrono10time_pointINS1_12steady_clockENS1_8durationIxNS_5ratioILl1ELl1000000000EEEEEEENS_9allocatorIS9_EEEC2B7v160006IDnNS_18__default_init_tagEEEOT_OT0_, symObjAddr: 0x36C0, symBinAddr: 0x10000A6D0, symSize: 0x40 }
  - { offsetInCU: 0x1F1E9, offset: 0x30F20, size: 0x8, addend: 0x0, symName: __ZNSt3__122__compressed_pair_elemIPPNS_6chrono10time_pointINS1_12steady_clockENS1_8durationIxNS_5ratioILl1ELl1000000000EEEEEEELi0ELb0EEC2B7v160006IDnvEEOT_, symObjAddr: 0x3700, symBinAddr: 0x10000A710, symSize: 0x20 }
  - { offsetInCU: 0x1F22A, offset: 0x30F61, size: 0x8, addend: 0x0, symName: __ZNSt3__122__compressed_pair_elemINS_9allocatorIPNS_6chrono10time_pointINS2_12steady_clockENS2_8durationIxNS_5ratioILl1ELl1000000000EEEEEEEEELi1ELb1EEC2B7v160006ENS_18__default_init_tagE, symObjAddr: 0x3720, symBinAddr: 0x10000A730, symSize: 0x20 }
  - { offsetInCU: 0x1F25E, offset: 0x30F95, size: 0x8, addend: 0x0, symName: __ZNSt3__19allocatorIPNS_6chrono10time_pointINS1_12steady_clockENS1_8durationIxNS_5ratioILl1ELl1000000000EEEEEEEEC2B7v160006Ev, symObjAddr: 0x3740, symBinAddr: 0x10000A750, symSize: 0x20 }
  - { offsetInCU: 0x1F287, offset: 0x30FBE, size: 0x8, addend: 0x0, symName: __ZNSt3__116__non_trivial_ifILb1ENS_9allocatorIPNS_6chrono10time_pointINS2_12steady_clockENS2_8durationIxNS_5ratioILl1ELl1000000000EEEEEEEEEEC2B7v160006Ev, symObjAddr: 0x3760, symBinAddr: 0x10000A770, symSize: 0x10 }
  - { offsetInCU: 0x1F2B0, offset: 0x30FE7, size: 0x8, addend: 0x0, symName: __ZNSt3__117__compressed_pairImNS_9allocatorINS_6chrono10time_pointINS2_12steady_clockENS2_8durationIxNS_5ratioILl1ELl1000000000EEEEEEEEEEC2B7v160006IiNS_18__default_init_tagEEEOT_OT0_, symObjAddr: 0x3770, symBinAddr: 0x10000A780, symSize: 0x40 }
  - { offsetInCU: 0x1F307, offset: 0x3103E, size: 0x8, addend: 0x0, symName: __ZNSt3__122__compressed_pair_elemINS_9allocatorINS_6chrono10time_pointINS2_12steady_clockENS2_8durationIxNS_5ratioILl1ELl1000000000EEEEEEEEELi1ELb1EEC2B7v160006ENS_18__default_init_tagE, symObjAddr: 0x37B0, symBinAddr: 0x10000A7C0, symSize: 0x20 }
  - { offsetInCU: 0x1F33B, offset: 0x31072, size: 0x8, addend: 0x0, symName: __ZNSt3__19allocatorINS_6chrono10time_pointINS1_12steady_clockENS1_8durationIxNS_5ratioILl1ELl1000000000EEEEEEEEC2B7v160006Ev, symObjAddr: 0x37D0, symBinAddr: 0x10000A7E0, symSize: 0x20 }
  - { offsetInCU: 0x1F364, offset: 0x3109B, size: 0x8, addend: 0x0, symName: __ZNSt3__116__non_trivial_ifILb1ENS_9allocatorINS_6chrono10time_pointINS2_12steady_clockENS2_8durationIxNS_5ratioILl1ELl1000000000EEEEEEEEEEC2B7v160006Ev, symObjAddr: 0x37F0, symBinAddr: 0x10000A800, symSize: 0x10 }
  - { offsetInCU: 0x1F38D, offset: 0x310C4, size: 0x8, addend: 0x0, symName: __ZNSt3__126linear_congruential_engineIjLj48271ELj0ELj2147483647EEC2B7v160006Ej, symObjAddr: 0x3800, symBinAddr: 0x10000A810, symSize: 0x30 }
  - { offsetInCU: 0x1F3C4, offset: 0x310FB, size: 0x8, addend: 0x0, symName: __ZNSt3__126linear_congruential_engineIjLj48271ELj0ELj2147483647EE4seedB7v160006Ej, symObjAddr: 0x3830, symBinAddr: 0x10000A840, symSize: 0x30 }
  - { offsetInCU: 0x1F3F8, offset: 0x3112F, size: 0x8, addend: 0x0, symName: __ZNSt3__126linear_congruential_engineIjLj48271ELj0ELj2147483647EE4seedB7v160006ENS_17integral_constantIbLb0EEENS2_IbLb1EEEj, symObjAddr: 0x3860, symBinAddr: 0x10000A870, symSize: 0x50 }
  - { offsetInCU: 0x1F443, offset: 0x3117A, size: 0x8, addend: 0x0, symName: __ZNSt3__124uniform_int_distributionIiEC2Eii, symObjAddr: 0x38B0, symBinAddr: 0x10000A8C0, symSize: 0x30 }
  - { offsetInCU: 0x1F488, offset: 0x311BF, size: 0x8, addend: 0x0, symName: __ZNSt3__124uniform_int_distributionIiE10param_typeC1Eii, symObjAddr: 0x38E0, symBinAddr: 0x10000A8F0, symSize: 0x30 }
  - { offsetInCU: 0x1F4CD, offset: 0x31204, size: 0x8, addend: 0x0, symName: __ZNSt3__124uniform_int_distributionIiE10param_typeC2Eii, symObjAddr: 0x3910, symBinAddr: 0x10000A920, symSize: 0x20 }
  - { offsetInCU: 0x1F512, offset: 0x31249, size: 0x8, addend: 0x0, symName: __ZNKSt3__124uniform_int_distributionIiE10param_type1bEv, symObjAddr: 0x3A80, symBinAddr: 0x10000AA90, symSize: 0x20 }
  - { offsetInCU: 0x1F538, offset: 0x3126F, size: 0x8, addend: 0x0, symName: __ZNKSt3__124uniform_int_distributionIiE10param_type1aEv, symObjAddr: 0x3AA0, symBinAddr: 0x10000AAB0, symSize: 0x10 }
  - { offsetInCU: 0x1F55E, offset: 0x31295, size: 0x8, addend: 0x0, symName: __ZNSt3__125__independent_bits_engineINS_26linear_congruential_engineIjLj48271ELj0ELj2147483647EEEjEC1ERS2_m, symObjAddr: 0x3AB0, symBinAddr: 0x10000AAC0, symSize: 0x30 }
  - { offsetInCU: 0x1F5A5, offset: 0x312DC, size: 0x8, addend: 0x0, symName: __ZNSt3__125__independent_bits_engineINS_26linear_congruential_engineIjLj48271ELj0ELj2147483647EEEjEclEv, symObjAddr: 0x3AE0, symBinAddr: 0x10000AAF0, symSize: 0x20 }
  - { offsetInCU: 0x1F5CB, offset: 0x31302, size: 0x8, addend: 0x0, symName: __ZNSt3__114numeric_limitsIjE3maxB7v160006Ev, symObjAddr: 0x3B40, symBinAddr: 0x10000AB50, symSize: 0x10 }
  - { offsetInCU: 0x1F5DF, offset: 0x31316, size: 0x8, addend: 0x0, symName: __ZNSt3__125__independent_bits_engineINS_26linear_congruential_engineIjLj48271ELj0ELj2147483647EEEjEC2ERS2_m, symObjAddr: 0x3B50, symBinAddr: 0x10000AB60, symSize: 0x220 }
  - { offsetInCU: 0x1F626, offset: 0x3135D, size: 0x8, addend: 0x0, symName: __ZNSt3__125__independent_bits_engineINS_26linear_congruential_engineIjLj48271ELj0ELj2147483647EEEjE6__evalENS_17integral_constantIbLb1EEE, symObjAddr: 0x3D70, symBinAddr: 0x10000AD80, symSize: 0x170 }
  - { offsetInCU: 0x1F6E8, offset: 0x3141F, size: 0x8, addend: 0x0, symName: __ZNSt3__126linear_congruential_engineIjLj48271ELj0ELj2147483647EEclB7v160006Ev, symObjAddr: 0x3EE0, symBinAddr: 0x10000AEF0, symSize: 0x30 }
  - { offsetInCU: 0x1F70E, offset: 0x31445, size: 0x8, addend: 0x0, symName: __ZNSt3__126linear_congruential_engineIjLj48271ELj0ELj2147483647EE3minB7v160006Ev, symObjAddr: 0x3F10, symBinAddr: 0x10000AF20, symSize: 0x10 }
  - { offsetInCU: 0x1F72D, offset: 0x31464, size: 0x8, addend: 0x0, symName: __ZNSt3__18__lce_taILy48271ELy0ELy2147483647ELy4294967295ELb1EE4nextB7v160006Ej, symObjAddr: 0x3F20, symBinAddr: 0x10000AF30, symSize: 0x80 }
  - { offsetInCU: 0x1F7A4, offset: 0x314DB, size: 0x8, addend: 0x0, symName: __ZNSt3__123__libcpp_numeric_limitsIjLb1EE3maxB7v160006Ev, symObjAddr: 0x3FC0, symBinAddr: 0x10000AFD0, symSize: 0x10 }
  - { offsetInCU: 0x1F7B8, offset: 0x314EF, size: 0x8, addend: 0x0, symName: __ZNSt3__125uniform_real_distributionIdEC2Edd, symObjAddr: 0x3FD0, symBinAddr: 0x10000AFE0, symSize: 0x30 }
  - { offsetInCU: 0x1F7FD, offset: 0x31534, size: 0x8, addend: 0x0, symName: __ZNSt3__125uniform_real_distributionIdE10param_typeC1B7v160006Edd, symObjAddr: 0x4000, symBinAddr: 0x10000B010, symSize: 0x30 }
  - { offsetInCU: 0x1F842, offset: 0x31579, size: 0x8, addend: 0x0, symName: __ZNSt3__125uniform_real_distributionIdE10param_typeC2B7v160006Edd, symObjAddr: 0x4030, symBinAddr: 0x10000B040, symSize: 0x30 }
  - { offsetInCU: 0x1F887, offset: 0x315BE, size: 0x8, addend: 0x0, symName: __ZNSt3__125uniform_real_distributionIdEclINS_26linear_congruential_engineIjLj48271ELj0ELj2147483647EEEEEdRT_RKNS1_10param_typeE, symObjAddr: 0x4060, symBinAddr: 0x10000B070, symSize: 0x70 }
  - { offsetInCU: 0x1F8D3, offset: 0x3160A, size: 0x8, addend: 0x0, symName: __ZNKSt3__125uniform_real_distributionIdE10param_type1bB7v160006Ev, symObjAddr: 0x40D0, symBinAddr: 0x10000B0E0, symSize: 0x20 }
  - { offsetInCU: 0x1F8F9, offset: 0x31630, size: 0x8, addend: 0x0, symName: __ZNKSt3__125uniform_real_distributionIdE10param_type1aB7v160006Ev, symObjAddr: 0x40F0, symBinAddr: 0x10000B100, symSize: 0x20 }
  - { offsetInCU: 0x1F91F, offset: 0x31656, size: 0x8, addend: 0x0, symName: __ZNSt3__126linear_congruential_engineIjLj48271ELj0ELj2147483647EE3maxB7v160006Ev, symObjAddr: 0x4210, symBinAddr: 0x10000B220, symSize: 0x10 }
  - { offsetInCU: 0x1F933, offset: 0x3166A, size: 0x8, addend: 0x0, symName: __ZNKSt3__16vectorI5OrderNS_9allocatorIS1_EEE5emptyB7v160006Ev, symObjAddr: 0x4220, symBinAddr: 0x10000B230, symSize: 0x20 }
  - { offsetInCU: 0x1F959, offset: 0x31690, size: 0x8, addend: 0x0, symName: __ZNKSt3__16vectorI5OrderNS_9allocatorIS1_EEE5frontB7v160006Ev, symObjAddr: 0x4240, symBinAddr: 0x10000B250, symSize: 0x20 }
  - { offsetInCU: 0x1F97F, offset: 0x316B6, size: 0x8, addend: 0x0, symName: __ZNSt3__113unordered_mapIi4BotsNS_4hashIiEENS_8equal_toIiEENS_9allocatorINS_4pairIKiS1_EEEEE4findB7v160006ERS8_, symObjAddr: 0x4260, symBinAddr: 0x10000B270, symSize: 0x40 }
  - { offsetInCU: 0x1F9B4, offset: 0x316EB, size: 0x8, addend: 0x0, symName: __ZNSt3__113unordered_mapIi4BotsNS_4hashIiEENS_8equal_toIiEENS_9allocatorINS_4pairIKiS1_EEEEE3endB7v160006Ev, symObjAddr: 0x42D0, symBinAddr: 0x10000B2E0, symSize: 0x30 }
  - { offsetInCU: 0x1F9DA, offset: 0x31711, size: 0x8, addend: 0x0, symName: __ZNKSt3__119__hash_map_iteratorINS_15__hash_iteratorIPNS_11__hash_nodeINS_17__hash_value_typeIi4BotsEEPvEEEEEptB7v160006Ev, symObjAddr: 0x4370, symBinAddr: 0x10000B380, symSize: 0x30 }
  - { offsetInCU: 0x1FA00, offset: 0x31737, size: 0x8, addend: 0x0, symName: __ZNSt3__112__hash_tableINS_17__hash_value_typeIi4BotsEENS_22__unordered_map_hasherIiS3_NS_4hashIiEENS_8equal_toIiEELb1EEENS_21__unordered_map_equalIiS3_S8_S6_Lb1EEENS_9allocatorIS3_EEE4findIiEENS_15__hash_iteratorIPNS_11__hash_nodeIS3_PvEEEERKT_, symObjAddr: 0x43A0, symBinAddr: 0x10000B3B0, symSize: 0x180 }
  - { offsetInCU: 0x1FA8F, offset: 0x317C6, size: 0x8, addend: 0x0, symName: __ZNSt3__119__hash_map_iteratorINS_15__hash_iteratorIPNS_11__hash_nodeINS_17__hash_value_typeIi4BotsEEPvEEEEEC1B7v160006ES9_, symObjAddr: 0x4520, symBinAddr: 0x10000B530, symSize: 0x30 }
  - { offsetInCU: 0x1FAC7, offset: 0x317FE, size: 0x8, addend: 0x0, symName: __ZNSt3__112__hash_tableINS_17__hash_value_typeIi4BotsEENS_22__unordered_map_hasherIiS3_NS_4hashIiEENS_8equal_toIiEELb1EEENS_21__unordered_map_equalIiS3_S8_S6_Lb1EEENS_9allocatorIS3_EEE13hash_functionB7v160006Ev, symObjAddr: 0x4550, symBinAddr: 0x10000B560, symSize: 0x20 }
  - { offsetInCU: 0x1FAED, offset: 0x31824, size: 0x8, addend: 0x0, symName: __ZNKSt3__122__unordered_map_hasherIiNS_17__hash_value_typeIi4BotsEENS_4hashIiEENS_8equal_toIiEELb1EEclB7v160006ERKi, symObjAddr: 0x4570, symBinAddr: 0x10000B580, symSize: 0x30 }
  - { offsetInCU: 0x1FB22, offset: 0x31859, size: 0x8, addend: 0x0, symName: __ZNKSt3__112__hash_tableINS_17__hash_value_typeIi4BotsEENS_22__unordered_map_hasherIiS3_NS_4hashIiEENS_8equal_toIiEELb1EEENS_21__unordered_map_equalIiS3_S8_S6_Lb1EEENS_9allocatorIS3_EEE12bucket_countB7v160006Ev, symObjAddr: 0x45A0, symBinAddr: 0x10000B5B0, symSize: 0x30 }
  - { offsetInCU: 0x1FB48, offset: 0x3187F, size: 0x8, addend: 0x0, symName: __ZNKSt3__110unique_ptrIA_PNS_16__hash_node_baseIPNS_11__hash_nodeINS_17__hash_value_typeIi4BotsEEPvEEEENS_25__bucket_list_deallocatorINS_9allocatorISA_EEEEEixB7v160006Em, symObjAddr: 0x4650, symBinAddr: 0x10000B660, symSize: 0x30 }
  - { offsetInCU: 0x1FB7D, offset: 0x318B4, size: 0x8, addend: 0x0, symName: __ZNKSt3__116__hash_node_baseIPNS_11__hash_nodeINS_17__hash_value_typeIi4BotsEEPvEEE6__hashB7v160006Ev, symObjAddr: 0x4680, symBinAddr: 0x10000B690, symSize: 0x20 }
  - { offsetInCU: 0x1FBA3, offset: 0x318DA, size: 0x8, addend: 0x0, symName: __ZNSt3__112__hash_tableINS_17__hash_value_typeIi4BotsEENS_22__unordered_map_hasherIiS3_NS_4hashIiEENS_8equal_toIiEELb1EEENS_21__unordered_map_equalIiS3_S8_S6_Lb1EEENS_9allocatorIS3_EEE6key_eqB7v160006Ev, symObjAddr: 0x46A0, symBinAddr: 0x10000B6B0, symSize: 0x20 }
  - { offsetInCU: 0x1FBC9, offset: 0x31900, size: 0x8, addend: 0x0, symName: __ZNKSt3__121__unordered_map_equalIiNS_17__hash_value_typeIi4BotsEENS_8equal_toIiEENS_4hashIiEELb1EEclB7v160006ERKS3_RKi, symObjAddr: 0x46C0, symBinAddr: 0x10000B6D0, symSize: 0x40 }
  - { offsetInCU: 0x1FC0D, offset: 0x31944, size: 0x8, addend: 0x0, symName: __ZNSt3__115__hash_iteratorIPNS_11__hash_nodeINS_17__hash_value_typeIi4BotsEEPvEEEC1B7v160006EPNS_16__hash_node_baseIS7_EEPKv, symObjAddr: 0x4720, symBinAddr: 0x10000B710, symSize: 0x30 }
  - { offsetInCU: 0x1FC54, offset: 0x3198B, size: 0x8, addend: 0x0, symName: __ZNSt3__112__hash_tableINS_17__hash_value_typeIi4BotsEENS_22__unordered_map_hasherIiS3_NS_4hashIiEENS_8equal_toIiEELb1EEENS_21__unordered_map_equalIiS3_S8_S6_Lb1EEENS_9allocatorIS3_EEE3endEv, symObjAddr: 0x4750, symBinAddr: 0x10000B740, symSize: 0x30 }
  - { offsetInCU: 0x1FC7C, offset: 0x319B3, size: 0x8, addend: 0x0, symName: __ZNSt3__117__compressed_pairImNS_22__unordered_map_hasherIiNS_17__hash_value_typeIi4BotsEENS_4hashIiEENS_8equal_toIiEELb1EEEE6secondB7v160006Ev, symObjAddr: 0x4780, symBinAddr: 0x10000B770, symSize: 0x20 }
  - { offsetInCU: 0x1FCA2, offset: 0x319D9, size: 0x8, addend: 0x0, symName: __ZNSt3__122__compressed_pair_elemINS_22__unordered_map_hasherIiNS_17__hash_value_typeIi4BotsEENS_4hashIiEENS_8equal_toIiEELb1EEELi1ELb1EE5__getB7v160006Ev, symObjAddr: 0x47A0, symBinAddr: 0x10000B790, symSize: 0x10 }
  - { offsetInCU: 0x1FCC8, offset: 0x319FF, size: 0x8, addend: 0x0, symName: __ZNKSt3__14hashIiEclB7v160006Ei, symObjAddr: 0x47B0, symBinAddr: 0x10000B7A0, symSize: 0x20 }
  - { offsetInCU: 0x1FCFD, offset: 0x31A34, size: 0x8, addend: 0x0, symName: __ZNKSt3__110unique_ptrIA_PNS_16__hash_node_baseIPNS_11__hash_nodeINS_17__hash_value_typeIi4BotsEEPvEEEENS_25__bucket_list_deallocatorINS_9allocatorISA_EEEEE11get_deleterB7v160006Ev, symObjAddr: 0x47D0, symBinAddr: 0x10000B7C0, symSize: 0x20 }
  - { offsetInCU: 0x1FD23, offset: 0x31A5A, size: 0x8, addend: 0x0, symName: __ZNKSt3__125__bucket_list_deallocatorINS_9allocatorIPNS_16__hash_node_baseIPNS_11__hash_nodeINS_17__hash_value_typeIi4BotsEEPvEEEEEEE4sizeB7v160006Ev, symObjAddr: 0x47F0, symBinAddr: 0x10000B7E0, symSize: 0x20 }
  - { offsetInCU: 0x1FD49, offset: 0x31A80, size: 0x8, addend: 0x0, symName: __ZNKSt3__117__compressed_pairIPPNS_16__hash_node_baseIPNS_11__hash_nodeINS_17__hash_value_typeIi4BotsEEPvEEEENS_25__bucket_list_deallocatorINS_9allocatorISA_EEEEE6secondB7v160006Ev, symObjAddr: 0x4810, symBinAddr: 0x10000B800, symSize: 0x20 }
  - { offsetInCU: 0x1FD6F, offset: 0x31AA6, size: 0x8, addend: 0x0, symName: __ZNKSt3__122__compressed_pair_elemINS_25__bucket_list_deallocatorINS_9allocatorIPNS_16__hash_node_baseIPNS_11__hash_nodeINS_17__hash_value_typeIi4BotsEEPvEEEEEEEELi1ELb0EE5__getB7v160006Ev, symObjAddr: 0x4830, symBinAddr: 0x10000B820, symSize: 0x10 }
  - { offsetInCU: 0x1FD95, offset: 0x31ACC, size: 0x8, addend: 0x0, symName: __ZNKSt3__117__compressed_pairImNS_9allocatorIPNS_16__hash_node_baseIPNS_11__hash_nodeINS_17__hash_value_typeIi4BotsEEPvEEEEEEE5firstB7v160006Ev, symObjAddr: 0x4840, symBinAddr: 0x10000B830, symSize: 0x20 }
  - { offsetInCU: 0x1FDBB, offset: 0x31AF2, size: 0x8, addend: 0x0, symName: __ZNKSt3__117__compressed_pairIPPNS_16__hash_node_baseIPNS_11__hash_nodeINS_17__hash_value_typeIi4BotsEEPvEEEENS_25__bucket_list_deallocatorINS_9allocatorISA_EEEEE5firstB7v160006Ev, symObjAddr: 0x4870, symBinAddr: 0x10000B850, symSize: 0x20 }
  - { offsetInCU: 0x1FDE1, offset: 0x31B18, size: 0x8, addend: 0x0, symName: __ZNKSt3__122__compressed_pair_elemIPPNS_16__hash_node_baseIPNS_11__hash_nodeINS_17__hash_value_typeIi4BotsEEPvEEEELi0ELb0EE5__getB7v160006Ev, symObjAddr: 0x4890, symBinAddr: 0x10000B870, symSize: 0x10 }
  - { offsetInCU: 0x1FE07, offset: 0x31B3E, size: 0x8, addend: 0x0, symName: __ZNSt3__117__compressed_pairIfNS_21__unordered_map_equalIiNS_17__hash_value_typeIi4BotsEENS_8equal_toIiEENS_4hashIiEELb1EEEE6secondB7v160006Ev, symObjAddr: 0x48A0, symBinAddr: 0x10000B880, symSize: 0x20 }
  - { offsetInCU: 0x1FE2D, offset: 0x31B64, size: 0x8, addend: 0x0, symName: __ZNSt3__122__compressed_pair_elemINS_21__unordered_map_equalIiNS_17__hash_value_typeIi4BotsEENS_8equal_toIiEENS_4hashIiEELb1EEELi1ELb1EE5__getB7v160006Ev, symObjAddr: 0x48C0, symBinAddr: 0x10000B8A0, symSize: 0x10 }
  - { offsetInCU: 0x1FE53, offset: 0x31B8A, size: 0x8, addend: 0x0, symName: __ZNKSt3__18equal_toIiEclB7v160006ERKiS3_, symObjAddr: 0x48D0, symBinAddr: 0x10000B8B0, symSize: 0x30 }
  - { offsetInCU: 0x1FE97, offset: 0x31BCE, size: 0x8, addend: 0x0, symName: __ZNKSt3__117__hash_value_typeIi4BotsE11__get_valueB7v160006Ev, symObjAddr: 0x4900, symBinAddr: 0x10000B8E0, symSize: 0x10 }
  - { offsetInCU: 0x1FEBD, offset: 0x31BF4, size: 0x8, addend: 0x0, symName: __ZNSt3__115__hash_iteratorIPNS_11__hash_nodeINS_17__hash_value_typeIi4BotsEEPvEEEC2B7v160006EPNS_16__hash_node_baseIS7_EEPKv, symObjAddr: 0x4920, symBinAddr: 0x10000B8F0, symSize: 0x20 }
  - { offsetInCU: 0x1FF04, offset: 0x31C3B, size: 0x8, addend: 0x0, symName: __ZNSt3__119__hash_map_iteratorINS_15__hash_iteratorIPNS_11__hash_nodeINS_17__hash_value_typeIi4BotsEEPvEEEEEC2B7v160006ES9_, symObjAddr: 0x4940, symBinAddr: 0x10000B910, symSize: 0x20 }
  - { offsetInCU: 0x1FF3C, offset: 0x31C73, size: 0x8, addend: 0x0, symName: __ZNSt12out_of_rangeC1B7v160006EPKc, symObjAddr: 0x4990, symBinAddr: 0x10000B960, symSize: 0x30 }
  - { offsetInCU: 0x1FF73, offset: 0x31CAA, size: 0x8, addend: 0x0, symName: __ZNSt12out_of_rangeC2B7v160006EPKc, symObjAddr: 0x49C0, symBinAddr: 0x10000B990, symSize: 0x40 }
  - { offsetInCU: 0x1FFAA, offset: 0x31CE1, size: 0x8, addend: 0x0, symName: __ZNSt3__114pointer_traitsIPNS_4pairIKi4BotsEEE10pointer_toB7v160006ERS4_, symObjAddr: 0x4A00, symBinAddr: 0x10000B9D0, symSize: 0x10 }
  - { offsetInCU: 0x1FFCD, offset: 0x31D04, size: 0x8, addend: 0x0, symName: __ZNKSt3__115__hash_iteratorIPNS_11__hash_nodeINS_17__hash_value_typeIi4BotsEEPvEEEptB7v160006Ev, symObjAddr: 0x4A10, symBinAddr: 0x10000B9E0, symSize: 0x30 }
  - { offsetInCU: 0x1FFF3, offset: 0x31D2A, size: 0x8, addend: 0x0, symName: __ZNSt3__114pointer_traitsIPNS_17__hash_value_typeIi4BotsEEE10pointer_toB7v160006ERS3_, symObjAddr: 0x4A50, symBinAddr: 0x10000BA10, symSize: 0x10 }
  - { offsetInCU: 0x20016, offset: 0x31D4D, size: 0x8, addend: 0x0, symName: __ZNSt3__16vectorI5OrderNS_9allocatorIS1_EEE5beginB7v160006Ev, symObjAddr: 0x4AB0, symBinAddr: 0x10000BA70, symSize: 0x30 }
  - { offsetInCU: 0x2003E, offset: 0x31D75, size: 0x8, addend: 0x0, symName: __ZNSt3__16vectorI5OrderNS_9allocatorIS1_EEE3endB7v160006Ev, symObjAddr: 0x4AE0, symBinAddr: 0x10000BAA0, symSize: 0x30 }
  - { offsetInCU: 0x20066, offset: 0x31D9D, size: 0x8, addend: 0x0, symName: __ZNSt3__16vectorI5OrderNS_9allocatorIS1_EEE8pop_backEv, symObjAddr: 0x4B10, symBinAddr: 0x10000BAD0, symSize: 0x30 }
  - { offsetInCU: 0x2008E, offset: 0x31DC5, size: 0x8, addend: 0x0, symName: __ZNKSt3__111__wrap_iterIP5OrderE4baseB7v160006Ev, symObjAddr: 0x4D00, symBinAddr: 0x10000BCC0, symSize: 0x20 }
  - { offsetInCU: 0x200B9, offset: 0x31DF0, size: 0x8, addend: 0x0, symName: __ZNSt3__18_IterOpsINS_17_ClassicAlgPolicyEE11__iter_moveB7v160006IRNS_11__wrap_iterIP5OrderEEEENS_9enable_ifIXsr12is_referenceIDTdeclsr3stdE7declvalIRT_EEEEE5valueEDTclsr3stdE4movedeclsr3stdE7declvalISB_EEEEE4typeEOSA_, symObjAddr: 0x4D20, symBinAddr: 0x10000BCE0, symSize: 0x20 }
  - { offsetInCU: 0x200E5, offset: 0x31E1C, size: 0x8, addend: 0x0, symName: __ZNSt3__111__wrap_iterIP5OrderEmmB7v160006Ev, symObjAddr: 0x4E90, symBinAddr: 0x10000BE50, symSize: 0x20 }
  - { offsetInCU: 0x2010B, offset: 0x31E42, size: 0x8, addend: 0x0, symName: __ZNKSt3__111__wrap_iterIP5OrderEdeB7v160006Ev, symObjAddr: 0x4EF0, symBinAddr: 0x10000BEB0, symSize: 0x20 }
  - { offsetInCU: 0x20131, offset: 0x31E68, size: 0x8, addend: 0x0, symName: __ZNSt3__111__wrap_iterIP5OrderEppB7v160006Ev, symObjAddr: 0x4F10, symBinAddr: 0x10000BED0, symSize: 0x20 }
  - { offsetInCU: 0x20157, offset: 0x31E8E, size: 0x8, addend: 0x0, symName: __ZNSt3__18_IterOpsINS_17_ClassicAlgPolicyEE25__validate_iter_referenceB7v160006IRNS_11__wrap_iterIP5OrderEEEEvv, symObjAddr: 0x50C0, symBinAddr: 0x10000C080, symSize: 0x10 }
  - { offsetInCU: 0x20175, offset: 0x31EAC, size: 0x8, addend: 0x0, symName: __ZNSt3__111__wrap_iterIP5OrderEpLB7v160006El, symObjAddr: 0x50D0, symBinAddr: 0x10000C090, symSize: 0x20 }
  - { offsetInCU: 0x201A9, offset: 0x31EE0, size: 0x8, addend: 0x0, symName: __ZN15CompareBuyOrderclERK5OrderS2_, symObjAddr: 0x50F0, symBinAddr: 0x10000C0B0, symSize: 0xB0 }
  - { offsetInCU: 0x201EB, offset: 0x31F22, size: 0x8, addend: 0x0, symName: __ZNKSt3__111__wrap_iterIP5OrderEplB7v160006El, symObjAddr: 0x51A0, symBinAddr: 0x10000C160, symSize: 0x40 }
  - { offsetInCU: 0x20237, offset: 0x31F6E, size: 0x8, addend: 0x0, symName: __ZNKSt3__16chrono13__duration_ltINS0_8durationIxNS_5ratioILl1ELl1000000000EEEEES5_EclB7v160006ERKS5_S8_, symObjAddr: 0x5260, symBinAddr: 0x10000C220, symSize: 0x50 }
  - { offsetInCU: 0x2027B, offset: 0x31FB2, size: 0x8, addend: 0x0, symName: __ZNSt3__16vectorI5OrderNS_9allocatorIS1_EEE11__make_iterB7v160006EPS1_, symObjAddr: 0x52B0, symBinAddr: 0x10000C270, symSize: 0x30 }
  - { offsetInCU: 0x202B0, offset: 0x31FE7, size: 0x8, addend: 0x0, symName: __ZNSt3__111__wrap_iterIP5OrderEC1B7v160006EPKvS2_, symObjAddr: 0x52E0, symBinAddr: 0x10000C2A0, symSize: 0x30 }
  - { offsetInCU: 0x202F5, offset: 0x3202C, size: 0x8, addend: 0x0, symName: __ZNSt3__111__wrap_iterIP5OrderEC2B7v160006EPKvS2_, symObjAddr: 0x5310, symBinAddr: 0x10000C2D0, symSize: 0x20 }
  - { offsetInCU: 0x2033A, offset: 0x32071, size: 0x8, addend: 0x0, symName: __ZNSt3__16vectorI5OrderNS_9allocatorIS1_EEE17__destruct_at_endB7v160006EPS1_, symObjAddr: 0x5330, symBinAddr: 0x10000C2F0, symSize: 0x60 }
  - { offsetInCU: 0x2037F, offset: 0x320B6, size: 0x8, addend: 0x0, symName: __ZNSt3__16vectorI5OrderNS_9allocatorIS1_EEE27__invalidate_iterators_pastB7v160006EPS1_, symObjAddr: 0x5390, symBinAddr: 0x10000C350, symSize: 0x10 }
  - { offsetInCU: 0x203B6, offset: 0x320ED, size: 0x8, addend: 0x0, symName: __ZNKSt3__16vectorI5OrderNS_9allocatorIS1_EEE17__annotate_shrinkB7v160006Em, symObjAddr: 0x5440, symBinAddr: 0x10000C360, symSize: 0xA0 }
  - { offsetInCU: 0x203EB, offset: 0x32122, size: 0x8, addend: 0x0, symName: __ZN16CompareSellOrderclERK5OrderS2_, symObjAddr: 0x5AF0, symBinAddr: 0x10000C8B0, symSize: 0xC0 }
  - { offsetInCU: 0x2042D, offset: 0x32164, size: 0x8, addend: 0x0, symName: __ZNSt3__16vectorI5OrderNS_9allocatorIS1_EEE9push_backB7v160006ERKS1_, symObjAddr: 0x5BB0, symBinAddr: 0x10000C970, symSize: 0x60 }
  - { offsetInCU: 0x20464, offset: 0x3219B, size: 0x8, addend: 0x0, symName: __ZNSt3__16vectorI5OrderNS_9allocatorIS1_EEE9__end_capB7v160006Ev, symObjAddr: 0x5C50, symBinAddr: 0x10000CA10, symSize: 0x20 }
  - { offsetInCU: 0x2048A, offset: 0x321C1, size: 0x8, addend: 0x0, symName: __ZNSt3__16vectorI5OrderNS_9allocatorIS1_EEE22__construct_one_at_endB7v160006IJRKS1_EEEvDpOT_, symObjAddr: 0x5C70, symBinAddr: 0x10000CA30, symSize: 0x90 }
  - { offsetInCU: 0x204DA, offset: 0x32211, size: 0x8, addend: 0x0, symName: __ZNSt3__16vectorI5OrderNS_9allocatorIS1_EEE21__push_back_slow_pathIRKS1_EEvOT_, symObjAddr: 0x5D00, symBinAddr: 0x10000CAC0, symSize: 0xD0 }
  - { offsetInCU: 0x2053A, offset: 0x32271, size: 0x8, addend: 0x0, symName: __ZNSt3__117__compressed_pairIP5OrderNS_9allocatorIS1_EEE5firstB7v160006Ev, symObjAddr: 0x5DD0, symBinAddr: 0x10000CB90, symSize: 0x20 }
  - { offsetInCU: 0x20560, offset: 0x32297, size: 0x8, addend: 0x0, symName: __ZNSt3__122__compressed_pair_elemIP5OrderLi0ELb0EE5__getB7v160006Ev, symObjAddr: 0x5DF0, symBinAddr: 0x10000CBB0, symSize: 0x10 }
  - { offsetInCU: 0x2059F, offset: 0x322D6, size: 0x8, addend: 0x0, symName: __ZNSt3__16vectorI5OrderNS_9allocatorIS1_EEE21_ConstructTransactionC1B7v160006ERS4_m, symObjAddr: 0x5E00, symBinAddr: 0x10000CBC0, symSize: 0x30 }
  - { offsetInCU: 0x205E6, offset: 0x3231D, size: 0x8, addend: 0x0, symName: __ZNSt3__116allocator_traitsINS_9allocatorI5OrderEEE9constructB7v160006IS2_JRKS2_EvEEvRS3_PT_DpOT0_, symObjAddr: 0x5E30, symBinAddr: 0x10000CBF0, symSize: 0x30 }
  - { offsetInCU: 0x2063D, offset: 0x32374, size: 0x8, addend: 0x0, symName: __ZNSt3__16vectorI5OrderNS_9allocatorIS1_EEE21_ConstructTransactionD1B7v160006Ev, symObjAddr: 0x5E60, symBinAddr: 0x10000CC20, symSize: 0x20 }
  - { offsetInCU: 0x20666, offset: 0x3239D, size: 0x8, addend: 0x0, symName: __ZNSt3__16vectorI5OrderNS_9allocatorIS1_EEE21_ConstructTransactionC2B7v160006ERS4_m, symObjAddr: 0x5E80, symBinAddr: 0x10000CC40, symSize: 0x40 }
  - { offsetInCU: 0x206AD, offset: 0x323E4, size: 0x8, addend: 0x0, symName: __ZNSt3__19allocatorI5OrderE9constructB7v160006IS1_JRKS1_EEEvPT_DpOT0_, symObjAddr: 0x5EC0, symBinAddr: 0x10000CC80, symSize: 0x40 }
  - { offsetInCU: 0x20703, offset: 0x3243A, size: 0x8, addend: 0x0, symName: __ZNSt3__16vectorI5OrderNS_9allocatorIS1_EEE21_ConstructTransactionD2B7v160006Ev, symObjAddr: 0x5F00, symBinAddr: 0x10000CCC0, symSize: 0x20 }
  - { offsetInCU: 0x2072C, offset: 0x32463, size: 0x8, addend: 0x0, symName: __ZNKSt3__16vectorI5OrderNS_9allocatorIS1_EEE11__recommendB7v160006Em, symObjAddr: 0x5F20, symBinAddr: 0x10000CCE0, symSize: 0xA0 }
  - { offsetInCU: 0x20783, offset: 0x324BA, size: 0x8, addend: 0x0, symName: __ZNSt3__114__split_bufferI5OrderRNS_9allocatorIS1_EEEC1EmmS4_, symObjAddr: 0x5FC0, symBinAddr: 0x10000CD80, symSize: 0x40 }
  - { offsetInCU: 0x207D9, offset: 0x32510, size: 0x8, addend: 0x0, symName: __ZNSt3__114__split_bufferI5OrderRNS_9allocatorIS1_EEED1Ev, symObjAddr: 0x6130, symBinAddr: 0x10000CEF0, symSize: 0x20 }
  - { offsetInCU: 0x20805, offset: 0x3253C, size: 0x8, addend: 0x0, symName: __ZNKSt3__16vectorI5OrderNS_9allocatorIS1_EEE8max_sizeEv, symObjAddr: 0x6150, symBinAddr: 0x10000CF10, symSize: 0x60 }
  - { offsetInCU: 0x2082D, offset: 0x32564, size: 0x8, addend: 0x0, symName: __ZNKSt3__16vectorI5OrderNS_9allocatorIS1_EEE20__throw_length_errorB7v160006Ev, symObjAddr: 0x61B0, symBinAddr: 0x10000CF70, symSize: 0x20 }
  - { offsetInCU: 0x2085D, offset: 0x32594, size: 0x8, addend: 0x0, symName: __ZNSt3__116allocator_traitsINS_9allocatorI5OrderEEE8max_sizeB7v160006IS3_vEEmRKS3_, symObjAddr: 0x6230, symBinAddr: 0x10000CFC0, symSize: 0x20 }
  - { offsetInCU: 0x2088B, offset: 0x325C2, size: 0x8, addend: 0x0, symName: __ZNKSt3__16vectorI5OrderNS_9allocatorIS1_EEE7__allocB7v160006Ev, symObjAddr: 0x6250, symBinAddr: 0x10000CFE0, symSize: 0x20 }
  - { offsetInCU: 0x208B1, offset: 0x325E8, size: 0x8, addend: 0x0, symName: __ZNKSt3__19allocatorI5OrderE8max_sizeB7v160006Ev, symObjAddr: 0x6300, symBinAddr: 0x10000D000, symSize: 0x20 }
  - { offsetInCU: 0x208D7, offset: 0x3260E, size: 0x8, addend: 0x0, symName: __ZNKSt3__117__compressed_pairIP5OrderNS_9allocatorIS1_EEE6secondB7v160006Ev, symObjAddr: 0x6320, symBinAddr: 0x10000D020, symSize: 0x20 }
  - { offsetInCU: 0x208FD, offset: 0x32634, size: 0x8, addend: 0x0, symName: __ZNKSt3__122__compressed_pair_elemINS_9allocatorI5OrderEELi1ELb1EE5__getB7v160006Ev, symObjAddr: 0x6340, symBinAddr: 0x10000D040, symSize: 0x10 }
  - { offsetInCU: 0x20923, offset: 0x3265A, size: 0x8, addend: 0x0, symName: __ZNSt3__114__split_bufferI5OrderRNS_9allocatorIS1_EEEC2EmmS4_, symObjAddr: 0x6490, symBinAddr: 0x10000D0A0, symSize: 0xD0 }
  - { offsetInCU: 0x20998, offset: 0x326CF, size: 0x8, addend: 0x0, symName: __ZNSt3__117__compressed_pairIP5OrderRNS_9allocatorIS1_EEEC1B7v160006IDnS5_EEOT_OT0_, symObjAddr: 0x6560, symBinAddr: 0x10000D170, symSize: 0x30 }
  - { offsetInCU: 0x209EF, offset: 0x32726, size: 0x8, addend: 0x0, symName: __ZNSt3__114__split_bufferI5OrderRNS_9allocatorIS1_EEE7__allocB7v160006Ev, symObjAddr: 0x65D0, symBinAddr: 0x10000D1E0, symSize: 0x20 }
  - { offsetInCU: 0x20A15, offset: 0x3274C, size: 0x8, addend: 0x0, symName: __ZNSt3__114__split_bufferI5OrderRNS_9allocatorIS1_EEE9__end_capB7v160006Ev, symObjAddr: 0x65F0, symBinAddr: 0x10000D200, symSize: 0x20 }
  - { offsetInCU: 0x20A3B, offset: 0x32772, size: 0x8, addend: 0x0, symName: __ZNSt3__117__compressed_pairIP5OrderRNS_9allocatorIS1_EEEC2B7v160006IDnS5_EEOT_OT0_, symObjAddr: 0x6610, symBinAddr: 0x10000D220, symSize: 0x40 }
  - { offsetInCU: 0x20A92, offset: 0x327C9, size: 0x8, addend: 0x0, symName: __ZNSt3__122__compressed_pair_elemIRNS_9allocatorI5OrderEELi1ELb0EEC2B7v160006IS4_vEEOT_, symObjAddr: 0x6650, symBinAddr: 0x10000D260, symSize: 0x20 }
  - { offsetInCU: 0x20AD3, offset: 0x3280A, size: 0x8, addend: 0x0, symName: __ZNSt3__19allocatorI5OrderE8allocateB7v160006Em, symObjAddr: 0x6670, symBinAddr: 0x10000D280, symSize: 0x50 }
  - { offsetInCU: 0x20B07, offset: 0x3283E, size: 0x8, addend: 0x0, symName: __ZNSt3__117__compressed_pairIP5OrderRNS_9allocatorIS1_EEE6secondB7v160006Ev, symObjAddr: 0x6740, symBinAddr: 0x10000D2D0, symSize: 0x20 }
  - { offsetInCU: 0x20B2D, offset: 0x32864, size: 0x8, addend: 0x0, symName: __ZNSt3__122__compressed_pair_elemIRNS_9allocatorI5OrderEELi1ELb0EE5__getB7v160006Ev, symObjAddr: 0x6760, symBinAddr: 0x10000D2F0, symSize: 0x20 }
  - { offsetInCU: 0x20B53, offset: 0x3288A, size: 0x8, addend: 0x0, symName: __ZNSt3__117__compressed_pairIP5OrderRNS_9allocatorIS1_EEE5firstB7v160006Ev, symObjAddr: 0x6780, symBinAddr: 0x10000D310, symSize: 0x20 }
  - { offsetInCU: 0x20B79, offset: 0x328B0, size: 0x8, addend: 0x0, symName: __ZNSt3__116reverse_iteratorIP5OrderEC1B7v160006ES2_, symObjAddr: 0x68C0, symBinAddr: 0x10000D3A0, symSize: 0x30 }
  - { offsetInCU: 0x20BB0, offset: 0x328E7, size: 0x8, addend: 0x0, symName: __ZNKSt3__116reverse_iteratorIP5OrderE4baseB7v160006Ev, symObjAddr: 0x68F0, symBinAddr: 0x10000D3D0, symSize: 0x20 }
  - { offsetInCU: 0x20BD6, offset: 0x3290D, size: 0x8, addend: 0x0, symName: __ZNKSt3__16vectorI5OrderNS_9allocatorIS1_EEE14__annotate_newB7v160006Em, symObjAddr: 0x6950, symBinAddr: 0x10000D430, symSize: 0xB0 }
  - { offsetInCU: 0x20C2E, offset: 0x32965, size: 0x8, addend: 0x0, symName: __ZNKSt3__111__move_loopINS_17_ClassicAlgPolicyEEclB7v160006INS_16reverse_iteratorIP5OrderEES7_S7_EENS_4pairIT_T1_EES9_T0_SA_, symObjAddr: 0x6E50, symBinAddr: 0x10000D930, symSize: 0xB0 }
  - { offsetInCU: 0x20C99, offset: 0x329D0, size: 0x8, addend: 0x0, symName: __ZNSt3__18_IterOpsINS_17_ClassicAlgPolicyEE11__iter_moveB7v160006IRNS_16reverse_iteratorIP5OrderEEEENS_9enable_ifIXsr12is_referenceIDTdeclsr3stdE7declvalIRT_EEEEE5valueEDTclsr3stdE4movedeclsr3stdE7declvalISB_EEEEE4typeEOSA_, symObjAddr: 0x7080, symBinAddr: 0x10000DB60, symSize: 0x20 }
  - { offsetInCU: 0x20CC5, offset: 0x329FC, size: 0x8, addend: 0x0, symName: __ZNKSt3__116reverse_iteratorIP5OrderEdeB7v160006Ev, symObjAddr: 0x70A0, symBinAddr: 0x10000DB80, symSize: 0x30 }
  - { offsetInCU: 0x20CF9, offset: 0x32A30, size: 0x8, addend: 0x0, symName: __ZNSt3__116reverse_iteratorIP5OrderEppB7v160006Ev, symObjAddr: 0x70D0, symBinAddr: 0x10000DBB0, symSize: 0x20 }
  - { offsetInCU: 0x20D1F, offset: 0x32A56, size: 0x8, addend: 0x0, symName: __ZNSt3__18_IterOpsINS_17_ClassicAlgPolicyEE25__validate_iter_referenceB7v160006IRNS_16reverse_iteratorIP5OrderEEEEvv, symObjAddr: 0x70F0, symBinAddr: 0x10000DBD0, symSize: 0x10 }
  - { offsetInCU: 0x20D3D, offset: 0x32A74, size: 0x8, addend: 0x0, symName: __ZNSt3__118__unwrap_iter_implINS_16reverse_iteratorIP5OrderEELb0EE8__unwrapB7v160006ES4_, symObjAddr: 0x7100, symBinAddr: 0x10000DBE0, symSize: 0x20 }
  - { offsetInCU: 0x20D65, offset: 0x32A9C, size: 0x8, addend: 0x0, symName: __ZNSt3__14pairINS_16reverse_iteratorIP5OrderEES4_EC1B7v160006IS4_S4_LPv0EEEOT_OT0_, symObjAddr: 0x7120, symBinAddr: 0x10000DC00, symSize: 0x30 }
  - { offsetInCU: 0x20DC2, offset: 0x32AF9, size: 0x8, addend: 0x0, symName: __ZNSt3__14pairINS_16reverse_iteratorIP5OrderEES4_EC2B7v160006IS4_S4_LPv0EEEOT_OT0_, symObjAddr: 0x7150, symBinAddr: 0x10000DC30, symSize: 0x40 }
  - { offsetInCU: 0x20E1F, offset: 0x32B56, size: 0x8, addend: 0x0, symName: __ZNSt3__118__unwrap_iter_implINS_16reverse_iteratorIP5OrderEELb0EE8__rewrapB7v160006ES4_S4_, symObjAddr: 0x7190, symBinAddr: 0x10000DC70, symSize: 0x30 }
  - { offsetInCU: 0x20E4D, offset: 0x32B84, size: 0x8, addend: 0x0, symName: __ZNSt3__116reverse_iteratorIP5OrderEC2B7v160006ES2_, symObjAddr: 0x71C0, symBinAddr: 0x10000DCA0, symSize: 0x30 }
  - { offsetInCU: 0x20E84, offset: 0x32BBB, size: 0x8, addend: 0x0, symName: __ZNSt3__114__split_bufferI5OrderRNS_9allocatorIS1_EEED2Ev, symObjAddr: 0x71F0, symBinAddr: 0x10000DCD0, symSize: 0x70 }
  - { offsetInCU: 0x20EB0, offset: 0x32BE7, size: 0x8, addend: 0x0, symName: __ZNSt3__114__split_bufferI5OrderRNS_9allocatorIS1_EEE5clearB7v160006Ev, symObjAddr: 0x7260, symBinAddr: 0x10000DD40, symSize: 0x20 }
  - { offsetInCU: 0x20ED6, offset: 0x32C0D, size: 0x8, addend: 0x0, symName: __ZNKSt3__114__split_bufferI5OrderRNS_9allocatorIS1_EEE8capacityB7v160006Ev, symObjAddr: 0x72B0, symBinAddr: 0x10000DD60, symSize: 0x30 }
  - { offsetInCU: 0x20EFC, offset: 0x32C33, size: 0x8, addend: 0x0, symName: __ZNSt3__114__split_bufferI5OrderRNS_9allocatorIS1_EEE17__destruct_at_endB7v160006EPS1_, symObjAddr: 0x72E0, symBinAddr: 0x10000DD90, symSize: 0x30 }
  - { offsetInCU: 0x20F30, offset: 0x32C67, size: 0x8, addend: 0x0, symName: __ZNSt3__114__split_bufferI5OrderRNS_9allocatorIS1_EEE17__destruct_at_endB7v160006EPS1_NS_17integral_constantIbLb0EEE, symObjAddr: 0x7310, symBinAddr: 0x10000DDC0, symSize: 0x80 }
  - { offsetInCU: 0x20F71, offset: 0x32CA8, size: 0x8, addend: 0x0, symName: __ZNKSt3__114__split_bufferI5OrderRNS_9allocatorIS1_EEE9__end_capB7v160006Ev, symObjAddr: 0x7440, symBinAddr: 0x10000DE40, symSize: 0x20 }
  - { offsetInCU: 0x20F97, offset: 0x32CCE, size: 0x8, addend: 0x0, symName: __ZNKSt3__117__compressed_pairIP5OrderRNS_9allocatorIS1_EEE5firstB7v160006Ev, symObjAddr: 0x7460, symBinAddr: 0x10000DE60, symSize: 0x20 }
  - { offsetInCU: 0x20FBD, offset: 0x32CF4, size: 0x8, addend: 0x0, symName: __ZNSt3__16vectorI13ExecutedTradeNS_9allocatorIS1_EEE9__end_capB7v160006Ev, symObjAddr: 0x7560, symBinAddr: 0x10000DF60, symSize: 0x20 }
  - { offsetInCU: 0x20FE3, offset: 0x32D1A, size: 0x8, addend: 0x0, symName: __ZNSt3__16vectorI13ExecutedTradeNS_9allocatorIS1_EEE22__construct_one_at_endB7v160006IJRdRiEEEvDpOT_, symObjAddr: 0x7580, symBinAddr: 0x10000DF80, symSize: 0xA0 }
  - { offsetInCU: 0x21047, offset: 0x32D7E, size: 0x8, addend: 0x0, symName: __ZNSt3__16vectorI13ExecutedTradeNS_9allocatorIS1_EEE24__emplace_back_slow_pathIJRdRiEEEvDpOT_, symObjAddr: 0x7620, symBinAddr: 0x10000E020, symSize: 0xE0 }
  - { offsetInCU: 0x210BE, offset: 0x32DF5, size: 0x8, addend: 0x0, symName: __ZNSt3__117__compressed_pairIP13ExecutedTradeNS_9allocatorIS1_EEE5firstB7v160006Ev, symObjAddr: 0x7700, symBinAddr: 0x10000E100, symSize: 0x20 }
  - { offsetInCU: 0x210E4, offset: 0x32E1B, size: 0x8, addend: 0x0, symName: __ZNSt3__122__compressed_pair_elemIP13ExecutedTradeLi0ELb0EE5__getB7v160006Ev, symObjAddr: 0x7720, symBinAddr: 0x10000E120, symSize: 0x10 }
  - { offsetInCU: 0x21123, offset: 0x32E5A, size: 0x8, addend: 0x0, symName: __ZNSt3__16vectorI13ExecutedTradeNS_9allocatorIS1_EEE21_ConstructTransactionC1B7v160006ERS4_m, symObjAddr: 0x7730, symBinAddr: 0x10000E130, symSize: 0x30 }
  - { offsetInCU: 0x2116A, offset: 0x32EA1, size: 0x8, addend: 0x0, symName: __ZNSt3__116allocator_traitsINS_9allocatorI13ExecutedTradeEEE9constructB7v160006IS2_JRdRiEvEEvRS3_PT_DpOT0_, symObjAddr: 0x7760, symBinAddr: 0x10000E160, symSize: 0x40 }
  - { offsetInCU: 0x211D5, offset: 0x32F0C, size: 0x8, addend: 0x0, symName: __ZNSt3__16vectorI13ExecutedTradeNS_9allocatorIS1_EEE21_ConstructTransactionD1B7v160006Ev, symObjAddr: 0x77D0, symBinAddr: 0x10000E1A0, symSize: 0x20 }
  - { offsetInCU: 0x211FE, offset: 0x32F35, size: 0x8, addend: 0x0, symName: __ZNSt3__16vectorI13ExecutedTradeNS_9allocatorIS1_EEE21_ConstructTransactionC2B7v160006ERS4_m, symObjAddr: 0x77F0, symBinAddr: 0x10000E1C0, symSize: 0x40 }
  - { offsetInCU: 0x21245, offset: 0x32F7C, size: 0x8, addend: 0x0, symName: __ZNSt3__19allocatorI13ExecutedTradeE9constructB7v160006IS1_JRdRiEEEvPT_DpOT0_, symObjAddr: 0x7830, symBinAddr: 0x10000E200, symSize: 0x40 }
  - { offsetInCU: 0x212AE, offset: 0x32FE5, size: 0x8, addend: 0x0, symName: __ZN13ExecutedTradeC1Edi, symObjAddr: 0x7870, symBinAddr: 0x10000E240, symSize: 0x30 }
  - { offsetInCU: 0x212F3, offset: 0x3302A, size: 0x8, addend: 0x0, symName: __ZN13ExecutedTradeC2Edi, symObjAddr: 0x78A0, symBinAddr: 0x10000E270, symSize: 0x50 }
  - { offsetInCU: 0x21338, offset: 0x3306F, size: 0x8, addend: 0x0, symName: __ZNSt3__16vectorI13ExecutedTradeNS_9allocatorIS1_EEE21_ConstructTransactionD2B7v160006Ev, symObjAddr: 0x7920, symBinAddr: 0x10000E2C0, symSize: 0x20 }
  - { offsetInCU: 0x21361, offset: 0x33098, size: 0x8, addend: 0x0, symName: __ZNKSt3__16vectorI13ExecutedTradeNS_9allocatorIS1_EEE11__recommendB7v160006Em, symObjAddr: 0x7940, symBinAddr: 0x10000E2E0, symSize: 0xA0 }
  - { offsetInCU: 0x213B8, offset: 0x330EF, size: 0x8, addend: 0x0, symName: __ZNSt3__114__split_bufferI13ExecutedTradeRNS_9allocatorIS1_EEEC1EmmS4_, symObjAddr: 0x7A10, symBinAddr: 0x10000E380, symSize: 0x40 }
  - { offsetInCU: 0x2140E, offset: 0x33145, size: 0x8, addend: 0x0, symName: __ZNSt3__114__split_bufferI13ExecutedTradeRNS_9allocatorIS1_EEED1Ev, symObjAddr: 0x7B80, symBinAddr: 0x10000E4F0, symSize: 0x20 }
  - { offsetInCU: 0x2143A, offset: 0x33171, size: 0x8, addend: 0x0, symName: __ZNKSt3__16vectorI13ExecutedTradeNS_9allocatorIS1_EEE8max_sizeEv, symObjAddr: 0x7BA0, symBinAddr: 0x10000E510, symSize: 0x60 }
  - { offsetInCU: 0x21462, offset: 0x33199, size: 0x8, addend: 0x0, symName: __ZNKSt3__16vectorI13ExecutedTradeNS_9allocatorIS1_EEE20__throw_length_errorB7v160006Ev, symObjAddr: 0x7C00, symBinAddr: 0x10000E570, symSize: 0x20 }
  - { offsetInCU: 0x21492, offset: 0x331C9, size: 0x8, addend: 0x0, symName: __ZNSt3__116allocator_traitsINS_9allocatorI13ExecutedTradeEEE8max_sizeB7v160006IS3_vEEmRKS3_, symObjAddr: 0x7C60, symBinAddr: 0x10000E590, symSize: 0x20 }
  - { offsetInCU: 0x214C0, offset: 0x331F7, size: 0x8, addend: 0x0, symName: __ZNKSt3__16vectorI13ExecutedTradeNS_9allocatorIS1_EEE7__allocB7v160006Ev, symObjAddr: 0x7C80, symBinAddr: 0x10000E5B0, symSize: 0x20 }
  - { offsetInCU: 0x214E6, offset: 0x3321D, size: 0x8, addend: 0x0, symName: __ZNKSt3__19allocatorI13ExecutedTradeE8max_sizeB7v160006Ev, symObjAddr: 0x7CA0, symBinAddr: 0x10000E5D0, symSize: 0x20 }
  - { offsetInCU: 0x2150C, offset: 0x33243, size: 0x8, addend: 0x0, symName: __ZNKSt3__117__compressed_pairIP13ExecutedTradeNS_9allocatorIS1_EEE6secondB7v160006Ev, symObjAddr: 0x7CC0, symBinAddr: 0x10000E5F0, symSize: 0x20 }
  - { offsetInCU: 0x21532, offset: 0x33269, size: 0x8, addend: 0x0, symName: __ZNKSt3__122__compressed_pair_elemINS_9allocatorI13ExecutedTradeEELi1ELb1EE5__getB7v160006Ev, symObjAddr: 0x7CE0, symBinAddr: 0x10000E610, symSize: 0x10 }
  - { offsetInCU: 0x21558, offset: 0x3328F, size: 0x8, addend: 0x0, symName: __ZNSt3__114__split_bufferI13ExecutedTradeRNS_9allocatorIS1_EEEC2EmmS4_, symObjAddr: 0x7D40, symBinAddr: 0x10000E620, symSize: 0xC0 }
  - { offsetInCU: 0x215CD, offset: 0x33304, size: 0x8, addend: 0x0, symName: __ZNSt3__117__compressed_pairIP13ExecutedTradeRNS_9allocatorIS1_EEEC1B7v160006IDnS5_EEOT_OT0_, symObjAddr: 0x7E00, symBinAddr: 0x10000E6E0, symSize: 0x30 }
  - { offsetInCU: 0x21624, offset: 0x3335B, size: 0x8, addend: 0x0, symName: __ZNSt3__114__split_bufferI13ExecutedTradeRNS_9allocatorIS1_EEE7__allocB7v160006Ev, symObjAddr: 0x7E70, symBinAddr: 0x10000E750, symSize: 0x20 }
  - { offsetInCU: 0x2164A, offset: 0x33381, size: 0x8, addend: 0x0, symName: __ZNSt3__114__split_bufferI13ExecutedTradeRNS_9allocatorIS1_EEE9__end_capB7v160006Ev, symObjAddr: 0x7E90, symBinAddr: 0x10000E770, symSize: 0x20 }
  - { offsetInCU: 0x21670, offset: 0x333A7, size: 0x8, addend: 0x0, symName: __ZNSt3__117__compressed_pairIP13ExecutedTradeRNS_9allocatorIS1_EEEC2B7v160006IDnS5_EEOT_OT0_, symObjAddr: 0x7EB0, symBinAddr: 0x10000E790, symSize: 0x40 }
  - { offsetInCU: 0x216C7, offset: 0x333FE, size: 0x8, addend: 0x0, symName: __ZNSt3__122__compressed_pair_elemIRNS_9allocatorI13ExecutedTradeEELi1ELb0EEC2B7v160006IS4_vEEOT_, symObjAddr: 0x7EF0, symBinAddr: 0x10000E7D0, symSize: 0x20 }
  - { offsetInCU: 0x21708, offset: 0x3343F, size: 0x8, addend: 0x0, symName: __ZNSt3__19allocatorI13ExecutedTradeE8allocateB7v160006Em, symObjAddr: 0x7F10, symBinAddr: 0x10000E7F0, symSize: 0x50 }
  - { offsetInCU: 0x2173C, offset: 0x33473, size: 0x8, addend: 0x0, symName: __ZNSt3__117__compressed_pairIP13ExecutedTradeRNS_9allocatorIS1_EEE6secondB7v160006Ev, symObjAddr: 0x7F60, symBinAddr: 0x10000E840, symSize: 0x20 }
  - { offsetInCU: 0x21762, offset: 0x33499, size: 0x8, addend: 0x0, symName: __ZNSt3__122__compressed_pair_elemIRNS_9allocatorI13ExecutedTradeEELi1ELb0EE5__getB7v160006Ev, symObjAddr: 0x7F80, symBinAddr: 0x10000E860, symSize: 0x20 }
  - { offsetInCU: 0x21788, offset: 0x334BF, size: 0x8, addend: 0x0, symName: __ZNSt3__117__compressed_pairIP13ExecutedTradeRNS_9allocatorIS1_EEE5firstB7v160006Ev, symObjAddr: 0x7FA0, symBinAddr: 0x10000E880, symSize: 0x20 }
  - { offsetInCU: 0x217AE, offset: 0x334E5, size: 0x8, addend: 0x0, symName: __ZNSt3__116reverse_iteratorIP13ExecutedTradeEC1B7v160006ES2_, symObjAddr: 0x80E0, symBinAddr: 0x10000E910, symSize: 0x30 }
  - { offsetInCU: 0x217E5, offset: 0x3351C, size: 0x8, addend: 0x0, symName: __ZNKSt3__116reverse_iteratorIP13ExecutedTradeE4baseB7v160006Ev, symObjAddr: 0x8110, symBinAddr: 0x10000E940, symSize: 0x20 }
  - { offsetInCU: 0x2180B, offset: 0x33542, size: 0x8, addend: 0x0, symName: __ZNKSt3__16vectorI13ExecutedTradeNS_9allocatorIS1_EEE14__annotate_newB7v160006Em, symObjAddr: 0x8170, symBinAddr: 0x10000E9A0, symSize: 0xA0 }
  - { offsetInCU: 0x21859, offset: 0x33590, size: 0x8, addend: 0x0, symName: __ZNKSt3__111__move_loopINS_17_ClassicAlgPolicyEEclB7v160006INS_16reverse_iteratorIP13ExecutedTradeEES7_S7_EENS_4pairIT_T1_EES9_T0_SA_, symObjAddr: 0x86A0, symBinAddr: 0x10000EE90, symSize: 0xB0 }
  - { offsetInCU: 0x218C9, offset: 0x33600, size: 0x8, addend: 0x0, symName: __ZNSt3__18_IterOpsINS_17_ClassicAlgPolicyEE11__iter_moveB7v160006IRNS_16reverse_iteratorIP13ExecutedTradeEEEENS_9enable_ifIXsr12is_referenceIDTdeclsr3stdE7declvalIRT_EEEEE5valueEDTclsr3stdE4movedeclsr3stdE7declvalISB_EEEEE4typeEOSA_, symObjAddr: 0x88D0, symBinAddr: 0x10000F0C0, symSize: 0x20 }
  - { offsetInCU: 0x218F5, offset: 0x3362C, size: 0x8, addend: 0x0, symName: __ZNKSt3__116reverse_iteratorIP13ExecutedTradeEdeB7v160006Ev, symObjAddr: 0x88F0, symBinAddr: 0x10000F0E0, symSize: 0x30 }
  - { offsetInCU: 0x21929, offset: 0x33660, size: 0x8, addend: 0x0, symName: __ZNSt3__116reverse_iteratorIP13ExecutedTradeEppB7v160006Ev, symObjAddr: 0x8920, symBinAddr: 0x10000F110, symSize: 0x20 }
  - { offsetInCU: 0x2194F, offset: 0x33686, size: 0x8, addend: 0x0, symName: __ZNSt3__18_IterOpsINS_17_ClassicAlgPolicyEE25__validate_iter_referenceB7v160006IRNS_16reverse_iteratorIP13ExecutedTradeEEEEvv, symObjAddr: 0x8940, symBinAddr: 0x10000F130, symSize: 0x10 }
  - { offsetInCU: 0x2196D, offset: 0x336A4, size: 0x8, addend: 0x0, symName: __ZNSt3__118__unwrap_iter_implINS_16reverse_iteratorIP13ExecutedTradeEELb0EE8__unwrapB7v160006ES4_, symObjAddr: 0x8950, symBinAddr: 0x10000F140, symSize: 0x20 }
  - { offsetInCU: 0x21995, offset: 0x336CC, size: 0x8, addend: 0x0, symName: __ZNSt3__14pairINS_16reverse_iteratorIP13ExecutedTradeEES4_EC1B7v160006IS4_S4_LPv0EEEOT_OT0_, symObjAddr: 0x8970, symBinAddr: 0x10000F160, symSize: 0x30 }
  - { offsetInCU: 0x219F2, offset: 0x33729, size: 0x8, addend: 0x0, symName: __ZNSt3__14pairINS_16reverse_iteratorIP13ExecutedTradeEES4_EC2B7v160006IS4_S4_LPv0EEEOT_OT0_, symObjAddr: 0x89A0, symBinAddr: 0x10000F190, symSize: 0x40 }
  - { offsetInCU: 0x21A4F, offset: 0x33786, size: 0x8, addend: 0x0, symName: __ZNSt3__118__unwrap_iter_implINS_16reverse_iteratorIP13ExecutedTradeEELb0EE8__rewrapB7v160006ES4_S4_, symObjAddr: 0x89E0, symBinAddr: 0x10000F1D0, symSize: 0x30 }
  - { offsetInCU: 0x21A7D, offset: 0x337B4, size: 0x8, addend: 0x0, symName: __ZNSt3__116reverse_iteratorIP13ExecutedTradeEC2B7v160006ES2_, symObjAddr: 0x8A10, symBinAddr: 0x10000F200, symSize: 0x30 }
  - { offsetInCU: 0x21AB4, offset: 0x337EB, size: 0x8, addend: 0x0, symName: __ZNSt3__114__split_bufferI13ExecutedTradeRNS_9allocatorIS1_EEED2Ev, symObjAddr: 0x8A40, symBinAddr: 0x10000F230, symSize: 0x70 }
  - { offsetInCU: 0x21AE0, offset: 0x33817, size: 0x8, addend: 0x0, symName: __ZNSt3__114__split_bufferI13ExecutedTradeRNS_9allocatorIS1_EEE5clearB7v160006Ev, symObjAddr: 0x8AB0, symBinAddr: 0x10000F2A0, symSize: 0x20 }
  - { offsetInCU: 0x21B06, offset: 0x3383D, size: 0x8, addend: 0x0, symName: __ZNKSt3__114__split_bufferI13ExecutedTradeRNS_9allocatorIS1_EEE8capacityB7v160006Ev, symObjAddr: 0x8B00, symBinAddr: 0x10000F2C0, symSize: 0x40 }
  - { offsetInCU: 0x21B2C, offset: 0x33863, size: 0x8, addend: 0x0, symName: __ZNSt3__114__split_bufferI13ExecutedTradeRNS_9allocatorIS1_EEE17__destruct_at_endB7v160006EPS1_, symObjAddr: 0x8B40, symBinAddr: 0x10000F300, symSize: 0x30 }
  - { offsetInCU: 0x21B60, offset: 0x33897, size: 0x8, addend: 0x0, symName: __ZNSt3__114__split_bufferI13ExecutedTradeRNS_9allocatorIS1_EEE17__destruct_at_endB7v160006EPS1_NS_17integral_constantIbLb0EEE, symObjAddr: 0x8B70, symBinAddr: 0x10000F330, symSize: 0x80 }
  - { offsetInCU: 0x21BA1, offset: 0x338D8, size: 0x8, addend: 0x0, symName: __ZNKSt3__114__split_bufferI13ExecutedTradeRNS_9allocatorIS1_EEE9__end_capB7v160006Ev, symObjAddr: 0x8C80, symBinAddr: 0x10000F3B0, symSize: 0x20 }
  - { offsetInCU: 0x21BC7, offset: 0x338FE, size: 0x8, addend: 0x0, symName: __ZNKSt3__117__compressed_pairIP13ExecutedTradeRNS_9allocatorIS1_EEE5firstB7v160006Ev, symObjAddr: 0x8CA0, symBinAddr: 0x10000F3D0, symSize: 0x20 }
  - { offsetInCU: 0x21BED, offset: 0x33924, size: 0x8, addend: 0x0, symName: __ZNSt3__16chrono8durationIxNS_5ratioILl1ELl1000EEEE4zeroB7v160006Ev, symObjAddr: 0x8CF0, symBinAddr: 0x10000F420, symSize: 0x40 }
  - { offsetInCU: 0x21C01, offset: 0x33938, size: 0x8, addend: 0x0, symName: __ZNSt3__16chrono8durationIxNS_5ratioILl1ELl1000000000EEEEppB7v160006Ev, symObjAddr: 0x8DC0, symBinAddr: 0x10000F4F0, symSize: 0x20 }
  - { offsetInCU: 0x21C27, offset: 0x3395E, size: 0x8, addend: 0x0, symName: __ZNSt3__16chrono8durationIxNS_5ratioILl1ELl1000000000EEEE3maxB7v160006Ev, symObjAddr: 0x8DE0, symBinAddr: 0x10000F510, symSize: 0x40 }
  - { offsetInCU: 0x21C45, offset: 0x3397C, size: 0x8, addend: 0x0, symName: __ZNKSt3__16chrono13__duration_ltINS0_8durationIxNS_5ratioILl1ELl1000EEEEES5_EclB7v160006ERKS5_S8_, symObjAddr: 0x8E50, symBinAddr: 0x10000F580, symSize: 0x50 }
  - { offsetInCU: 0x21C89, offset: 0x339C0, size: 0x8, addend: 0x0, symName: __ZNKSt3__16chrono8durationIxNS_5ratioILl1ELl1000EEEE5countB7v160006Ev, symObjAddr: 0x8EA0, symBinAddr: 0x10000F5D0, symSize: 0x20 }
  - { offsetInCU: 0x21CAF, offset: 0x339E6, size: 0x8, addend: 0x0, symName: __ZNSt3__16chrono15duration_valuesIxE4zeroB7v160006Ev, symObjAddr: 0x8EC0, symBinAddr: 0x10000F5F0, symSize: 0x10 }
  - { offsetInCU: 0x21CC3, offset: 0x339FA, size: 0x8, addend: 0x0, symName: __ZNSt3__16chrono8durationIxNS_5ratioILl1ELl1000EEEEC1B7v160006IxEERKT_PNS_9enable_ifIXaasr14is_convertibleIS8_xEE5valueooL_ZNS_17integral_constantIbLb0EE5valueEEntsr23treat_as_floating_pointIS6_EE5valueEvE4typeE, symObjAddr: 0x8ED0, symBinAddr: 0x10000F600, symSize: 0x30 }
  - { offsetInCU: 0x21D0E, offset: 0x33A45, size: 0x8, addend: 0x0, symName: __ZNSt3__16chrono8durationIxNS_5ratioILl1ELl1000EEEEC2B7v160006IxEERKT_PNS_9enable_ifIXaasr14is_convertibleIS8_xEE5valueooL_ZNS_17integral_constantIbLb0EE5valueEEntsr23treat_as_floating_pointIS6_EE5valueEvE4typeE, symObjAddr: 0x8F00, symBinAddr: 0x10000F630, symSize: 0x20 }
  - { offsetInCU: 0x21D59, offset: 0x33A90, size: 0x8, addend: 0x0, symName: __ZNSt3__16chrono8durationIeNS_5ratioILl1ELl1000EEEEC1B7v160006IxS3_EERKNS1_IT_T0_EEPNS_9enable_ifIXaasr13__no_overflowIS7_S3_EE5valueooL_ZNS_17integral_constantIbLb1EE5valueEEaaeqsr13__no_overflowIS7_S3_E4typeE3denLi1Entsr23treat_as_floating_pointIS6_EE5valueEvE4typeE, symObjAddr: 0x8F90, symBinAddr: 0x10000F6C0, symSize: 0x30 }
  - { offsetInCU: 0x21DAE, offset: 0x33AE5, size: 0x8, addend: 0x0, symName: __ZNKSt3__16chrono8durationIeNS_5ratioILl1ELl1000EEEE5countB7v160006Ev, symObjAddr: 0x8FC0, symBinAddr: 0x10000F6F0, symSize: 0x10 }
  - { offsetInCU: 0x21DD4, offset: 0x33B0B, size: 0x8, addend: 0x0, symName: __ZNSt3__16chrono8durationIeNS_5ratioILl1ELl1000EEEEC1B7v160006IeNS2_ILl1ELl1EEEEERKNS1_IT_T0_EEPNS_9enable_ifIXaasr13__no_overflowIS8_S3_EE5valueooL_ZNS_17integral_constantIbLb1EE5valueEEaaeqsr13__no_overflowIS8_S3_E4typeE3denLi1Entsr23treat_as_floating_pointIS7_EE5valueEvE4typeE, symObjAddr: 0x8FD0, symBinAddr: 0x10000F700, symSize: 0x30 }
  - { offsetInCU: 0x21E29, offset: 0x33B60, size: 0x8, addend: 0x0, symName: __ZNSt3__16chrono8durationIeNS_5ratioILl1ELl1000EEEEC2B7v160006IxS3_EERKNS1_IT_T0_EEPNS_9enable_ifIXaasr13__no_overflowIS7_S3_EE5valueooL_ZNS_17integral_constantIbLb1EE5valueEEaaeqsr13__no_overflowIS7_S3_E4typeE3denLi1Entsr23treat_as_floating_pointIS6_EE5valueEvE4typeE, symObjAddr: 0x9000, symBinAddr: 0x10000F730, symSize: 0x40 }
  - { offsetInCU: 0x21E88, offset: 0x33BBF, size: 0x8, addend: 0x0, symName: __ZNKSt3__16chrono15__duration_castINS0_8durationIxNS_5ratioILl1ELl1000EEEEENS2_IeS4_EENS3_ILl1ELl1EEELb1ELb1EEclB7v160006ERKS5_, symObjAddr: 0x9070, symBinAddr: 0x10000F7A0, symSize: 0x40 }
  - { offsetInCU: 0x21EC6, offset: 0x33BFD, size: 0x8, addend: 0x0, symName: __ZNSt3__16chrono8durationIeNS_5ratioILl1ELl1000EEEEC1B7v160006IeEERKT_PNS_9enable_ifIXaasr14is_convertibleIS8_eEE5valueooL_ZNS_17integral_constantIbLb1EE5valueEEntsr23treat_as_floating_pointIS6_EE5valueEvE4typeE, symObjAddr: 0x90B0, symBinAddr: 0x10000F7E0, symSize: 0x30 }
  - { offsetInCU: 0x21F11, offset: 0x33C48, size: 0x8, addend: 0x0, symName: __ZNSt3__16chrono8durationIeNS_5ratioILl1ELl1000EEEEC2B7v160006IeEERKT_PNS_9enable_ifIXaasr14is_convertibleIS8_eEE5valueooL_ZNS_17integral_constantIbLb1EE5valueEEntsr23treat_as_floating_pointIS6_EE5valueEvE4typeE, symObjAddr: 0x90E0, symBinAddr: 0x10000F810, symSize: 0x20 }
  - { offsetInCU: 0x21F5C, offset: 0x33C93, size: 0x8, addend: 0x0, symName: __ZNSt3__16chrono8durationIeNS_5ratioILl1ELl1000EEEEC2B7v160006IeNS2_ILl1ELl1EEEEERKNS1_IT_T0_EEPNS_9enable_ifIXaasr13__no_overflowIS8_S3_EE5valueooL_ZNS_17integral_constantIbLb1EE5valueEEaaeqsr13__no_overflowIS8_S3_E4typeE3denLi1Entsr23treat_as_floating_pointIS7_EE5valueEvE4typeE, symObjAddr: 0x9100, symBinAddr: 0x10000F830, symSize: 0x40 }
  - { offsetInCU: 0x21FB1, offset: 0x33CE8, size: 0x8, addend: 0x0, symName: __ZNKSt3__16chrono8durationIeNS_5ratioILl1ELl1EEEE5countB7v160006Ev, symObjAddr: 0x91B0, symBinAddr: 0x10000F8E0, symSize: 0x10 }
  - { offsetInCU: 0x21FD7, offset: 0x33D0E, size: 0x8, addend: 0x0, symName: __ZNSt3__16chrono8durationIxNS_5ratioILl1ELl1000000000EEEEC1B7v160006IxNS2_ILl1ELl1000EEEEERKNS1_IT_T0_EEPNS_9enable_ifIXaasr13__no_overflowIS8_S3_EE5valueooL_ZNS_17integral_constantIbLb0EE5valueEEaaeqsr13__no_overflowIS8_S3_E4typeE3denLi1Entsr23treat_as_floating_pointIS7_EE5valueEvE4typeE, symObjAddr: 0x9260, symBinAddr: 0x10000F990, symSize: 0x30 }
  - { offsetInCU: 0x2202C, offset: 0x33D63, size: 0x8, addend: 0x0, symName: __ZNSt3__16chrono8durationIxNS_5ratioILl1ELl1000000000EEEEC2B7v160006IxNS2_ILl1ELl1000EEEEERKNS1_IT_T0_EEPNS_9enable_ifIXaasr13__no_overflowIS8_S3_EE5valueooL_ZNS_17integral_constantIbLb0EE5valueEEaaeqsr13__no_overflowIS8_S3_E4typeE3denLi1Entsr23treat_as_floating_pointIS7_EE5valueEvE4typeE, symObjAddr: 0x9290, symBinAddr: 0x10000F9C0, symSize: 0x50 }
  - { offsetInCU: 0x22081, offset: 0x33DB8, size: 0x8, addend: 0x0, symName: __ZNSt3__16chrono15duration_valuesIxE3maxB7v160006Ev, symObjAddr: 0x92E0, symBinAddr: 0x10000FA10, symSize: 0x10 }
  - { offsetInCU: 0x22095, offset: 0x33DCC, size: 0x8, addend: 0x0, symName: __ZNSt3__114numeric_limitsIxE3maxB7v160006Ev, symObjAddr: 0x92F0, symBinAddr: 0x10000FA20, symSize: 0x10 }
  - { offsetInCU: 0x220A9, offset: 0x33DE0, size: 0x8, addend: 0x0, symName: __ZNSt3__123__libcpp_numeric_limitsIxLb1EE3maxB7v160006Ev, symObjAddr: 0x9300, symBinAddr: 0x10000FA30, symSize: 0x10 }
  - { offsetInCU: 0x220BD, offset: 0x33DF4, size: 0x8, addend: 0x0, symName: __ZNSt3__113__atomic_baseIbLb0EE5storeB7v160006EbNS_12memory_orderE, symObjAddr: 0x9310, symBinAddr: 0x10000FA40, symSize: 0x40 }
  - { offsetInCU: 0x22106, offset: 0x33E3D, size: 0x8, addend: 0x0, symName: __ZNSt3__117reference_wrapperINS_6atomicIbEEEC1B7v160006IRS2_vEEOT_, symObjAddr: 0x93C0, symBinAddr: 0x10000FAF0, symSize: 0x30 }
  - { offsetInCU: 0x22147, offset: 0x33E7E, size: 0x8, addend: 0x0, symName: __ZNSt3__117reference_wrapperINS_6atomicIbEEEC2B7v160006IRS2_vEEOT_, symObjAddr: 0x93F0, symBinAddr: 0x10000FB20, symSize: 0x30 }
  - { offsetInCU: 0x221A5, offset: 0x33EDC, size: 0x8, addend: 0x0, symName: __ZNSt3__16threadC2IM6MarketFviRNS_6atomicIbEEEJPS2_RiNS_17reference_wrapperIS4_EEEvEEOT_DpOT0_, symObjAddr: 0x9420, symBinAddr: 0x10000FB50, symSize: 0x160 }
  - { offsetInCU: 0x22262, offset: 0x33F99, size: 0x8, addend: 0x0, symName: __ZNSt3__110unique_ptrINS_15__thread_structENS_14default_deleteIS1_EEEC1B7v160006ILb1EvEEPS1_, symObjAddr: 0x9580, symBinAddr: 0x10000FCB0, symSize: 0x30 }
  - { offsetInCU: 0x222A4, offset: 0x33FDB, size: 0x8, addend: 0x0, symName: __ZNSt3__15tupleIJNS_10unique_ptrINS_15__thread_structENS_14default_deleteIS2_EEEEM6MarketFviRNS_6atomicIbEEEPS6_iNS_17reference_wrapperIS8_EEEEC1B7v160006IJS5_SB_SC_RiSE_ELi0EEEDpOT_, symObjAddr: 0x95B0, symBinAddr: 0x10000FCE0, symSize: 0x50 }
  - { offsetInCU: 0x223CE, offset: 0x34105, size: 0x8, addend: 0x0, symName: __ZNSt3__110unique_ptrINS_5tupleIJNS0_INS_15__thread_structENS_14default_deleteIS2_EEEEM6MarketFviRNS_6atomicIbEEEPS6_iNS_17reference_wrapperIS8_EEEEENS3_ISF_EEEC1B7v160006ILb1EvEEPSF_, symObjAddr: 0x9600, symBinAddr: 0x10000FD30, symSize: 0x30 }
  - { offsetInCU: 0x22410, offset: 0x34147, size: 0x8, addend: 0x0, symName: __ZNKSt3__110unique_ptrINS_5tupleIJNS0_INS_15__thread_structENS_14default_deleteIS2_EEEEM6MarketFviRNS_6atomicIbEEEPS6_iNS_17reference_wrapperIS8_EEEEENS3_ISF_EEE3getB7v160006Ev, symObjAddr: 0x9700, symBinAddr: 0x10000FE30, symSize: 0x20 }
  - { offsetInCU: 0x22436, offset: 0x3416D, size: 0x8, addend: 0x0, symName: __ZNSt3__110unique_ptrINS_5tupleIJNS0_INS_15__thread_structENS_14default_deleteIS2_EEEEM6MarketFviRNS_6atomicIbEEEPS6_iNS_17reference_wrapperIS8_EEEEENS3_ISF_EEE7releaseB7v160006Ev, symObjAddr: 0x9720, symBinAddr: 0x10000FE50, symSize: 0x40 }
  - { offsetInCU: 0x2246C, offset: 0x341A3, size: 0x8, addend: 0x0, symName: __ZNSt3__110unique_ptrINS_5tupleIJNS0_INS_15__thread_structENS_14default_deleteIS2_EEEEM6MarketFviRNS_6atomicIbEEEPS6_iNS_17reference_wrapperIS8_EEEEENS3_ISF_EEED1B7v160006Ev, symObjAddr: 0x9760, symBinAddr: 0x10000FE90, symSize: 0x20 }
  - { offsetInCU: 0x22495, offset: 0x341CC, size: 0x8, addend: 0x0, symName: __ZNSt3__110unique_ptrINS_15__thread_structENS_14default_deleteIS1_EEED1B7v160006Ev, symObjAddr: 0x9780, symBinAddr: 0x10000FEB0, symSize: 0x20 }
  - { offsetInCU: 0x224BE, offset: 0x341F5, size: 0x8, addend: 0x0, symName: __ZNSt3__110unique_ptrINS_15__thread_structENS_14default_deleteIS1_EEEC2B7v160006ILb1EvEEPS1_, symObjAddr: 0x97A0, symBinAddr: 0x10000FED0, symSize: 0x40 }
  - { offsetInCU: 0x22500, offset: 0x34237, size: 0x8, addend: 0x0, symName: __ZNSt3__117__compressed_pairIPNS_15__thread_structENS_14default_deleteIS1_EEEC1B7v160006IRS2_NS_16__value_init_tagEEEOT_OT0_, symObjAddr: 0x97E0, symBinAddr: 0x10000FF10, symSize: 0x30 }
  - { offsetInCU: 0x22557, offset: 0x3428E, size: 0x8, addend: 0x0, symName: __ZNSt3__117__compressed_pairIPNS_15__thread_structENS_14default_deleteIS1_EEEC2B7v160006IRS2_NS_16__value_init_tagEEEOT_OT0_, symObjAddr: 0x9810, symBinAddr: 0x10000FF40, symSize: 0x40 }
  - { offsetInCU: 0x225AE, offset: 0x342E5, size: 0x8, addend: 0x0, symName: __ZNSt3__122__compressed_pair_elemIPNS_15__thread_structELi0ELb0EEC2B7v160006IRS2_vEEOT_, symObjAddr: 0x9850, symBinAddr: 0x10000FF80, symSize: 0x20 }
  - { offsetInCU: 0x225EF, offset: 0x34326, size: 0x8, addend: 0x0, symName: __ZNSt3__122__compressed_pair_elemINS_14default_deleteINS_15__thread_structEEELi1ELb1EEC2B7v160006ENS_16__value_init_tagE, symObjAddr: 0x9870, symBinAddr: 0x10000FFA0, symSize: 0x10 }
  - { offsetInCU: 0x22623, offset: 0x3435A, size: 0x8, addend: 0x0, symName: __ZNSt3__15tupleIJNS_10unique_ptrINS_15__thread_structENS_14default_deleteIS2_EEEEM6MarketFviRNS_6atomicIbEEEPS6_iNS_17reference_wrapperIS8_EEEEC2B7v160006IJS5_SB_SC_RiSE_ELi0EEEDpOT_, symObjAddr: 0x9880, symBinAddr: 0x10000FFB0, symSize: 0x50 }
  - { offsetInCU: 0x226BC, offset: 0x343F3, size: 0x8, addend: 0x0, symName: __ZNSt3__112__tuple_implINS_15__tuple_indicesIJLm0ELm1ELm2ELm3ELm4EEEEJNS_10unique_ptrINS_15__thread_structENS_14default_deleteIS4_EEEEM6MarketFviRNS_6atomicIbEEEPS8_iNS_17reference_wrapperISA_EEEEC1B7v160006IJLm0ELm1ELm2ELm3ELm4EEJS7_SD_SE_iSG_EJEJEJS7_SD_SE_RiSG_EEENS1_IJXspT_EEEENS_13__tuple_typesIJDpT0_EEENS1_IJXspT1_EEEENSL_IJDpT2_EEEDpOT3_, symObjAddr: 0x98D0, symBinAddr: 0x100010000, symSize: 0x50 }
  - { offsetInCU: 0x227CA, offset: 0x34501, size: 0x8, addend: 0x0, symName: __ZNSt3__112__tuple_implINS_15__tuple_indicesIJLm0ELm1ELm2ELm3ELm4EEEEJNS_10unique_ptrINS_15__thread_structENS_14default_deleteIS4_EEEEM6MarketFviRNS_6atomicIbEEEPS8_iNS_17reference_wrapperISA_EEEEC2B7v160006IJLm0ELm1ELm2ELm3ELm4EEJS7_SD_SE_iSG_EJEJEJS7_SD_SE_RiSG_EEENS1_IJXspT_EEEENS_13__tuple_typesIJDpT0_EEENS1_IJXspT1_EEEENSL_IJDpT2_EEEDpOT3_, symObjAddr: 0x9920, symBinAddr: 0x100010050, symSize: 0x80 }
  - { offsetInCU: 0x228D8, offset: 0x3460F, size: 0x8, addend: 0x0, symName: __ZNSt3__112__tuple_leafILm0ENS_10unique_ptrINS_15__thread_structENS_14default_deleteIS2_EEEELb0EEC2B7v160006IS5_vEEOT_, symObjAddr: 0x99A0, symBinAddr: 0x1000100D0, symSize: 0x30 }
  - { offsetInCU: 0x2291A, offset: 0x34651, size: 0x8, addend: 0x0, symName: __ZNSt3__112__tuple_leafILm1EM6MarketFviRNS_6atomicIbEEELb0EEC2B7v160006IS6_vEEOT_, symObjAddr: 0x99D0, symBinAddr: 0x100010100, symSize: 0x30 }
  - { offsetInCU: 0x2295C, offset: 0x34693, size: 0x8, addend: 0x0, symName: __ZNSt3__112__tuple_leafILm2EP6MarketLb0EEC2B7v160006IS2_vEEOT_, symObjAddr: 0x9A00, symBinAddr: 0x100010130, symSize: 0x20 }
  - { offsetInCU: 0x2299E, offset: 0x346D5, size: 0x8, addend: 0x0, symName: __ZNSt3__112__tuple_leafILm3EiLb0EEC2B7v160006IRivEEOT_, symObjAddr: 0x9A20, symBinAddr: 0x100010150, symSize: 0x20 }
  - { offsetInCU: 0x229E0, offset: 0x34717, size: 0x8, addend: 0x0, symName: __ZNSt3__112__tuple_leafILm4ENS_17reference_wrapperINS_6atomicIbEEEELb0EEC2B7v160006IS4_vEEOT_, symObjAddr: 0x9A40, symBinAddr: 0x100010170, symSize: 0x20 }
  - { offsetInCU: 0x22A22, offset: 0x34759, size: 0x8, addend: 0x0, symName: __ZNSt3__110unique_ptrINS_15__thread_structENS_14default_deleteIS1_EEEC1B7v160006EOS4_, symObjAddr: 0x9A60, symBinAddr: 0x100010190, symSize: 0x30 }
  - { offsetInCU: 0x22A59, offset: 0x34790, size: 0x8, addend: 0x0, symName: __ZNSt3__110unique_ptrINS_15__thread_structENS_14default_deleteIS1_EEEC2B7v160006EOS4_, symObjAddr: 0x9A90, symBinAddr: 0x1000101C0, symSize: 0x60 }
  - { offsetInCU: 0x22A90, offset: 0x347C7, size: 0x8, addend: 0x0, symName: __ZNSt3__110unique_ptrINS_15__thread_structENS_14default_deleteIS1_EEE7releaseB7v160006Ev, symObjAddr: 0x9AF0, symBinAddr: 0x100010220, symSize: 0x40 }
  - { offsetInCU: 0x22AC6, offset: 0x347FD, size: 0x8, addend: 0x0, symName: __ZNSt3__110unique_ptrINS_15__thread_structENS_14default_deleteIS1_EEE11get_deleterB7v160006Ev, symObjAddr: 0x9B30, symBinAddr: 0x100010260, symSize: 0x20 }
  - { offsetInCU: 0x22AF6, offset: 0x3482D, size: 0x8, addend: 0x0, symName: __ZNSt3__117__compressed_pairIPNS_15__thread_structENS_14default_deleteIS1_EEEC1B7v160006IS2_S4_EEOT_OT0_, symObjAddr: 0x9B50, symBinAddr: 0x100010280, symSize: 0x30 }
  - { offsetInCU: 0x22B4D, offset: 0x34884, size: 0x8, addend: 0x0, symName: __ZNSt3__117__compressed_pairIPNS_15__thread_structENS_14default_deleteIS1_EEE5firstB7v160006Ev, symObjAddr: 0x9B80, symBinAddr: 0x1000102B0, symSize: 0x20 }
  - { offsetInCU: 0x22B73, offset: 0x348AA, size: 0x8, addend: 0x0, symName: __ZNSt3__122__compressed_pair_elemIPNS_15__thread_structELi0ELb0EE5__getB7v160006Ev, symObjAddr: 0x9BA0, symBinAddr: 0x1000102D0, symSize: 0x10 }
  - { offsetInCU: 0x22B99, offset: 0x348D0, size: 0x8, addend: 0x0, symName: __ZNSt3__117__compressed_pairIPNS_15__thread_structENS_14default_deleteIS1_EEE6secondB7v160006Ev, symObjAddr: 0x9BB0, symBinAddr: 0x1000102E0, symSize: 0x20 }
  - { offsetInCU: 0x22BBF, offset: 0x348F6, size: 0x8, addend: 0x0, symName: __ZNSt3__122__compressed_pair_elemINS_14default_deleteINS_15__thread_structEEELi1ELb1EE5__getB7v160006Ev, symObjAddr: 0x9BD0, symBinAddr: 0x100010300, symSize: 0x10 }
  - { offsetInCU: 0x22BE5, offset: 0x3491C, size: 0x8, addend: 0x0, symName: __ZNSt3__117__compressed_pairIPNS_15__thread_structENS_14default_deleteIS1_EEEC2B7v160006IS2_S4_EEOT_OT0_, symObjAddr: 0x9BE0, symBinAddr: 0x100010310, symSize: 0x40 }
  - { offsetInCU: 0x22C3C, offset: 0x34973, size: 0x8, addend: 0x0, symName: __ZNSt3__122__compressed_pair_elemIPNS_15__thread_structELi0ELb0EEC2B7v160006IS2_vEEOT_, symObjAddr: 0x9C20, symBinAddr: 0x100010350, symSize: 0x20 }
  - { offsetInCU: 0x22C7D, offset: 0x349B4, size: 0x8, addend: 0x0, symName: __ZNSt3__122__compressed_pair_elemINS_14default_deleteINS_15__thread_structEEELi1ELb1EEC2B7v160006IS3_vEEOT_, symObjAddr: 0x9C40, symBinAddr: 0x100010370, symSize: 0x10 }
  - { offsetInCU: 0x22CBE, offset: 0x349F5, size: 0x8, addend: 0x0, symName: __ZNSt3__110unique_ptrINS_5tupleIJNS0_INS_15__thread_structENS_14default_deleteIS2_EEEEM6MarketFviRNS_6atomicIbEEEPS6_iNS_17reference_wrapperIS8_EEEEENS3_ISF_EEEC2B7v160006ILb1EvEEPSF_, symObjAddr: 0x9C50, symBinAddr: 0x100010380, symSize: 0x40 }
  - { offsetInCU: 0x22D00, offset: 0x34A37, size: 0x8, addend: 0x0, symName: __ZNSt3__117__compressed_pairIPNS_5tupleIJNS_10unique_ptrINS_15__thread_structENS_14default_deleteIS3_EEEEM6MarketFviRNS_6atomicIbEEEPS7_iNS_17reference_wrapperIS9_EEEEENS4_ISG_EEEC1B7v160006IRSH_NS_16__value_init_tagEEEOT_OT0_, symObjAddr: 0x9C90, symBinAddr: 0x1000103C0, symSize: 0x30 }
  - { offsetInCU: 0x22D57, offset: 0x34A8E, size: 0x8, addend: 0x0, symName: __ZNSt3__117__compressed_pairIPNS_5tupleIJNS_10unique_ptrINS_15__thread_structENS_14default_deleteIS3_EEEEM6MarketFviRNS_6atomicIbEEEPS7_iNS_17reference_wrapperIS9_EEEEENS4_ISG_EEEC2B7v160006IRSH_NS_16__value_init_tagEEEOT_OT0_, symObjAddr: 0x9CC0, symBinAddr: 0x1000103F0, symSize: 0x40 }
  - { offsetInCU: 0x22DAE, offset: 0x34AE5, size: 0x8, addend: 0x0, symName: __ZNSt3__122__compressed_pair_elemIPNS_5tupleIJNS_10unique_ptrINS_15__thread_structENS_14default_deleteIS3_EEEEM6MarketFviRNS_6atomicIbEEEPS7_iNS_17reference_wrapperIS9_EEEEELi0ELb0EEC2B7v160006IRSH_vEEOT_, symObjAddr: 0x9D00, symBinAddr: 0x100010430, symSize: 0x20 }
  - { offsetInCU: 0x22DEF, offset: 0x34B26, size: 0x8, addend: 0x0, symName: __ZNSt3__122__compressed_pair_elemINS_14default_deleteINS_5tupleIJNS_10unique_ptrINS_15__thread_structENS1_IS4_EEEEM6MarketFviRNS_6atomicIbEEEPS7_iNS_17reference_wrapperIS9_EEEEEEELi1ELb1EEC2B7v160006ENS_16__value_init_tagE, symObjAddr: 0x9D20, symBinAddr: 0x100010450, symSize: 0x10 }
  - { offsetInCU: 0x22E52, offset: 0x34B89, size: 0x8, addend: 0x0, symName: __ZNSt3__121__thread_specific_ptrINS_15__thread_structEE11set_pointerEPS1_, symObjAddr: 0x9D30, symBinAddr: 0x100010460, symSize: 0x30 }
  - { offsetInCU: 0x22E87, offset: 0x34BBE, size: 0x8, addend: 0x0, symName: __ZNSt3__112__tuple_leafILm0ENS_10unique_ptrINS_15__thread_structENS_14default_deleteIS2_EEEELb0EE3getB7v160006Ev, symObjAddr: 0x9E10, symBinAddr: 0x100010540, symSize: 0x10 }
  - { offsetInCU: 0x22EAD, offset: 0x34BE4, size: 0x8, addend: 0x0, symName: __ZNKSt3__117reference_wrapperINS_6atomicIbEEEcvRS2_B7v160006Ev, symObjAddr: 0x9F40, symBinAddr: 0x100010670, symSize: 0x20 }
  - { offsetInCU: 0x22ED3, offset: 0x34C0A, size: 0x8, addend: 0x0, symName: __ZNSt3__112__tuple_leafILm1EM6MarketFviRNS_6atomicIbEEELb0EE3getB7v160006Ev, symObjAddr: 0x9F60, symBinAddr: 0x100010690, symSize: 0x10 }
  - { offsetInCU: 0x22EF9, offset: 0x34C30, size: 0x8, addend: 0x0, symName: __ZNSt3__112__tuple_leafILm2EP6MarketLb0EE3getB7v160006Ev, symObjAddr: 0x9F70, symBinAddr: 0x1000106A0, symSize: 0x10 }
  - { offsetInCU: 0x22F1F, offset: 0x34C56, size: 0x8, addend: 0x0, symName: __ZNSt3__112__tuple_leafILm3EiLb0EE3getB7v160006Ev, symObjAddr: 0x9F80, symBinAddr: 0x1000106B0, symSize: 0x10 }
  - { offsetInCU: 0x22F45, offset: 0x34C7C, size: 0x8, addend: 0x0, symName: __ZNSt3__112__tuple_leafILm4ENS_17reference_wrapperINS_6atomicIbEEEELb0EE3getB7v160006Ev, symObjAddr: 0x9F90, symBinAddr: 0x1000106C0, symSize: 0x10 }
  - { offsetInCU: 0x22F6B, offset: 0x34CA2, size: 0x8, addend: 0x0, symName: __ZNKSt3__117__compressed_pairIPNS_5tupleIJNS_10unique_ptrINS_15__thread_structENS_14default_deleteIS3_EEEEM6MarketFviRNS_6atomicIbEEEPS7_iNS_17reference_wrapperIS9_EEEEENS4_ISG_EEE5firstB7v160006Ev, symObjAddr: 0x9FA0, symBinAddr: 0x1000106D0, symSize: 0x20 }
  - { offsetInCU: 0x22F91, offset: 0x34CC8, size: 0x8, addend: 0x0, symName: __ZNKSt3__122__compressed_pair_elemIPNS_5tupleIJNS_10unique_ptrINS_15__thread_structENS_14default_deleteIS3_EEEEM6MarketFviRNS_6atomicIbEEEPS7_iNS_17reference_wrapperIS9_EEEEELi0ELb0EE5__getB7v160006Ev, symObjAddr: 0x9FC0, symBinAddr: 0x1000106F0, symSize: 0x10 }
  - { offsetInCU: 0x22FB7, offset: 0x34CEE, size: 0x8, addend: 0x0, symName: __ZNSt3__117__compressed_pairIPNS_5tupleIJNS_10unique_ptrINS_15__thread_structENS_14default_deleteIS3_EEEEM6MarketFviRNS_6atomicIbEEEPS7_iNS_17reference_wrapperIS9_EEEEENS4_ISG_EEE5firstB7v160006Ev, symObjAddr: 0x9FD0, symBinAddr: 0x100010700, symSize: 0x20 }
  - { offsetInCU: 0x22FDD, offset: 0x34D14, size: 0x8, addend: 0x0, symName: __ZNSt3__122__compressed_pair_elemIPNS_5tupleIJNS_10unique_ptrINS_15__thread_structENS_14default_deleteIS3_EEEEM6MarketFviRNS_6atomicIbEEEPS7_iNS_17reference_wrapperIS9_EEEEELi0ELb0EE5__getB7v160006Ev, symObjAddr: 0x9FF0, symBinAddr: 0x100010720, symSize: 0x10 }
  - { offsetInCU: 0x23003, offset: 0x34D3A, size: 0x8, addend: 0x0, symName: __ZNSt3__110unique_ptrINS_5tupleIJNS0_INS_15__thread_structENS_14default_deleteIS2_EEEEM6MarketFviRNS_6atomicIbEEEPS6_iNS_17reference_wrapperIS8_EEEEENS3_ISF_EEED2B7v160006Ev, symObjAddr: 0xA000, symBinAddr: 0x100010730, symSize: 0x20 }
  - { offsetInCU: 0x2302C, offset: 0x34D63, size: 0x8, addend: 0x0, symName: __ZNSt3__110unique_ptrINS_5tupleIJNS0_INS_15__thread_structENS_14default_deleteIS2_EEEEM6MarketFviRNS_6atomicIbEEEPS6_iNS_17reference_wrapperIS8_EEEEENS3_ISF_EEE5resetB7v160006EPSF_, symObjAddr: 0xA020, symBinAddr: 0x100010750, symSize: 0x70 }
  - { offsetInCU: 0x23071, offset: 0x34DA8, size: 0x8, addend: 0x0, symName: __ZNSt3__117__compressed_pairIPNS_5tupleIJNS_10unique_ptrINS_15__thread_structENS_14default_deleteIS3_EEEEM6MarketFviRNS_6atomicIbEEEPS7_iNS_17reference_wrapperIS9_EEEEENS4_ISG_EEE6secondB7v160006Ev, symObjAddr: 0xA090, symBinAddr: 0x1000107C0, symSize: 0x20 }
  - { offsetInCU: 0x23097, offset: 0x34DCE, size: 0x8, addend: 0x0, symName: __ZNKSt3__114default_deleteINS_5tupleIJNS_10unique_ptrINS_15__thread_structENS0_IS3_EEEEM6MarketFviRNS_6atomicIbEEEPS6_iNS_17reference_wrapperIS8_EEEEEEclB7v160006EPSF_, symObjAddr: 0xA0B0, symBinAddr: 0x1000107E0, symSize: 0x40 }
  - { offsetInCU: 0x230CB, offset: 0x34E02, size: 0x8, addend: 0x0, symName: __ZNSt3__122__compressed_pair_elemINS_14default_deleteINS_5tupleIJNS_10unique_ptrINS_15__thread_structENS1_IS4_EEEEM6MarketFviRNS_6atomicIbEEEPS7_iNS_17reference_wrapperIS9_EEEEEEELi1ELb1EE5__getB7v160006Ev, symObjAddr: 0xA0F0, symBinAddr: 0x100010820, symSize: 0x10 }
  - { offsetInCU: 0x230F1, offset: 0x34E28, size: 0x8, addend: 0x0, symName: __ZNSt3__15tupleIJNS_10unique_ptrINS_15__thread_structENS_14default_deleteIS2_EEEEM6MarketFviRNS_6atomicIbEEEPS6_iNS_17reference_wrapperIS8_EEEED1Ev, symObjAddr: 0xA100, symBinAddr: 0x100010830, symSize: 0x20 }
  - { offsetInCU: 0x2311E, offset: 0x34E55, size: 0x8, addend: 0x0, symName: __ZNSt3__15tupleIJNS_10unique_ptrINS_15__thread_structENS_14default_deleteIS2_EEEEM6MarketFviRNS_6atomicIbEEEPS6_iNS_17reference_wrapperIS8_EEEED2Ev, symObjAddr: 0xA120, symBinAddr: 0x100010850, symSize: 0x20 }
  - { offsetInCU: 0x2314B, offset: 0x34E82, size: 0x8, addend: 0x0, symName: __ZNSt3__112__tuple_implINS_15__tuple_indicesIJLm0ELm1ELm2ELm3ELm4EEEEJNS_10unique_ptrINS_15__thread_structENS_14default_deleteIS4_EEEEM6MarketFviRNS_6atomicIbEEEPS8_iNS_17reference_wrapperISA_EEEED1Ev, symObjAddr: 0xA140, symBinAddr: 0x100010870, symSize: 0x20 }
  - { offsetInCU: 0x23178, offset: 0x34EAF, size: 0x8, addend: 0x0, symName: __ZNSt3__112__tuple_implINS_15__tuple_indicesIJLm0ELm1ELm2ELm3ELm4EEEEJNS_10unique_ptrINS_15__thread_structENS_14default_deleteIS4_EEEEM6MarketFviRNS_6atomicIbEEEPS8_iNS_17reference_wrapperISA_EEEED2Ev, symObjAddr: 0xA160, symBinAddr: 0x100010890, symSize: 0x20 }
  - { offsetInCU: 0x231A5, offset: 0x34EDC, size: 0x8, addend: 0x0, symName: __ZNSt3__112__tuple_leafILm0ENS_10unique_ptrINS_15__thread_structENS_14default_deleteIS2_EEEELb0EED2Ev, symObjAddr: 0xA180, symBinAddr: 0x1000108B0, symSize: 0x20 }
  - { offsetInCU: 0x231D2, offset: 0x34F09, size: 0x8, addend: 0x0, symName: __ZNSt3__110unique_ptrINS_15__thread_structENS_14default_deleteIS1_EEED2B7v160006Ev, symObjAddr: 0xA1A0, symBinAddr: 0x1000108D0, symSize: 0x20 }
  - { offsetInCU: 0x231FB, offset: 0x34F32, size: 0x8, addend: 0x0, symName: __ZNSt3__110unique_ptrINS_15__thread_structENS_14default_deleteIS1_EEE5resetB7v160006EPS1_, symObjAddr: 0xA1C0, symBinAddr: 0x1000108F0, symSize: 0x70 }
  - { offsetInCU: 0x23240, offset: 0x34F77, size: 0x8, addend: 0x0, symName: __ZNKSt3__114default_deleteINS_15__thread_structEEclB7v160006EPS1_, symObjAddr: 0xA230, symBinAddr: 0x100010960, symSize: 0x40 }
  - { offsetInCU: 0x23274, offset: 0x34FAB, size: 0x8, addend: 0x0, symName: __ZNSt3__16vectorINS_6threadENS_9allocatorIS1_EEEC2B7v160006Ev, symObjAddr: 0xA270, symBinAddr: 0x1000109A0, symSize: 0x60 }
  - { offsetInCU: 0x2329D, offset: 0x34FD4, size: 0x8, addend: 0x0, symName: __ZNSt3__117__compressed_pairIPNS_6threadENS_9allocatorIS1_EEEC1B7v160006IDnNS_18__default_init_tagEEEOT_OT0_, symObjAddr: 0xA2D0, symBinAddr: 0x100010A00, symSize: 0x30 }
  - { offsetInCU: 0x232F4, offset: 0x3502B, size: 0x8, addend: 0x0, symName: __ZNSt3__117__compressed_pairIPNS_6threadENS_9allocatorIS1_EEEC2B7v160006IDnNS_18__default_init_tagEEEOT_OT0_, symObjAddr: 0xA310, symBinAddr: 0x100010A40, symSize: 0x40 }
  - { offsetInCU: 0x2334B, offset: 0x35082, size: 0x8, addend: 0x0, symName: __ZNSt3__122__compressed_pair_elemIPNS_6threadELi0ELb0EEC2B7v160006IDnvEEOT_, symObjAddr: 0xA350, symBinAddr: 0x100010A80, symSize: 0x20 }
  - { offsetInCU: 0x2338C, offset: 0x350C3, size: 0x8, addend: 0x0, symName: __ZNSt3__122__compressed_pair_elemINS_9allocatorINS_6threadEEELi1ELb1EEC2B7v160006ENS_18__default_init_tagE, symObjAddr: 0xA370, symBinAddr: 0x100010AA0, symSize: 0x20 }
  - { offsetInCU: 0x233C0, offset: 0x350F7, size: 0x8, addend: 0x0, symName: __ZNSt3__19allocatorINS_6threadEEC2B7v160006Ev, symObjAddr: 0xA390, symBinAddr: 0x100010AC0, symSize: 0x20 }
  - { offsetInCU: 0x233E9, offset: 0x35120, size: 0x8, addend: 0x0, symName: __ZNSt3__116__non_trivial_ifILb1ENS_9allocatorINS_6threadEEEEC2B7v160006Ev, symObjAddr: 0xA3B0, symBinAddr: 0x100010AE0, symSize: 0x10 }
  - { offsetInCU: 0x23412, offset: 0x35149, size: 0x8, addend: 0x0, symName: __ZNSt3__16vectorINS_6threadENS_9allocatorIS1_EEED2B7v160006Ev, symObjAddr: 0xA3C0, symBinAddr: 0x100010AF0, symSize: 0x40 }
  - { offsetInCU: 0x2343B, offset: 0x35172, size: 0x8, addend: 0x0, symName: __ZNSt3__16vectorINS_6threadENS_9allocatorIS1_EEE16__destroy_vectorC1ERS4_, symObjAddr: 0xA400, symBinAddr: 0x100010B30, symSize: 0x30 }
  - { offsetInCU: 0x23473, offset: 0x351AA, size: 0x8, addend: 0x0, symName: __ZNSt3__16vectorINS_6threadENS_9allocatorIS1_EEE16__destroy_vectorclB7v160006Ev, symObjAddr: 0xA430, symBinAddr: 0x100010B60, symSize: 0x90 }
  - { offsetInCU: 0x23499, offset: 0x351D0, size: 0x8, addend: 0x0, symName: __ZNSt3__16vectorINS_6threadENS_9allocatorIS1_EEE16__destroy_vectorC2ERS4_, symObjAddr: 0xA4C0, symBinAddr: 0x100010BF0, symSize: 0x20 }
  - { offsetInCU: 0x234D1, offset: 0x35208, size: 0x8, addend: 0x0, symName: __ZNKSt3__16vectorINS_6threadENS_9allocatorIS1_EEE17__annotate_deleteB7v160006Ev, symObjAddr: 0xA4E0, symBinAddr: 0x100010C10, symSize: 0xB0 }
  - { offsetInCU: 0x234F7, offset: 0x3522E, size: 0x8, addend: 0x0, symName: __ZNSt3__16vectorINS_6threadENS_9allocatorIS1_EEE7__clearB7v160006Ev, symObjAddr: 0xA5A0, symBinAddr: 0x100010CD0, symSize: 0x20 }
  - { offsetInCU: 0x2351D, offset: 0x35254, size: 0x8, addend: 0x0, symName: __ZNSt3__116allocator_traitsINS_9allocatorINS_6threadEEEE10deallocateB7v160006ERS3_PS2_m, symObjAddr: 0xA5C0, symBinAddr: 0x100010CF0, symSize: 0x30 }
  - { offsetInCU: 0x2355F, offset: 0x35296, size: 0x8, addend: 0x0, symName: __ZNSt3__16vectorINS_6threadENS_9allocatorIS1_EEE7__allocB7v160006Ev, symObjAddr: 0xA5F0, symBinAddr: 0x100010D20, symSize: 0x20 }
  - { offsetInCU: 0x23585, offset: 0x352BC, size: 0x8, addend: 0x0, symName: __ZNKSt3__16vectorINS_6threadENS_9allocatorIS1_EEE8capacityB7v160006Ev, symObjAddr: 0xA610, symBinAddr: 0x100010D40, symSize: 0x30 }
  - { offsetInCU: 0x235AB, offset: 0x352E2, size: 0x8, addend: 0x0, symName: __ZNKSt3__16vectorINS_6threadENS_9allocatorIS1_EEE31__annotate_contiguous_containerB7v160006EPKvS6_S6_S6_, symObjAddr: 0xA640, symBinAddr: 0x100010D70, symSize: 0x20 }
  - { offsetInCU: 0x235FD, offset: 0x35334, size: 0x8, addend: 0x0, symName: __ZNKSt3__16vectorINS_6threadENS_9allocatorIS1_EEE4dataB7v160006Ev, symObjAddr: 0xA660, symBinAddr: 0x100010D90, symSize: 0x20 }
  - { offsetInCU: 0x23623, offset: 0x3535A, size: 0x8, addend: 0x0, symName: __ZNKSt3__16vectorINS_6threadENS_9allocatorIS1_EEE4sizeB7v160006Ev, symObjAddr: 0xA680, symBinAddr: 0x100010DB0, symSize: 0x20 }
  - { offsetInCU: 0x23649, offset: 0x35380, size: 0x8, addend: 0x0, symName: __ZNSt3__16vectorINS_6threadENS_9allocatorIS1_EEE22__base_destruct_at_endB7v160006EPS1_, symObjAddr: 0xA6B0, symBinAddr: 0x100010DE0, symSize: 0x80 }
  - { offsetInCU: 0x2368E, offset: 0x353C5, size: 0x8, addend: 0x0, symName: __ZNSt3__116allocator_traitsINS_9allocatorINS_6threadEEEE7destroyB7v160006IS2_vEEvRS3_PT_, symObjAddr: 0xA730, symBinAddr: 0x100010E60, symSize: 0x30 }
  - { offsetInCU: 0x236CB, offset: 0x35402, size: 0x8, addend: 0x0, symName: __ZNSt3__19allocatorINS_6threadEE7destroyB7v160006EPS1_, symObjAddr: 0xA760, symBinAddr: 0x100010E90, symSize: 0x20 }
  - { offsetInCU: 0x236FF, offset: 0x35436, size: 0x8, addend: 0x0, symName: __ZNSt3__19allocatorINS_6threadEE10deallocateB7v160006EPS1_m, symObjAddr: 0xA780, symBinAddr: 0x100010EB0, symSize: 0x40 }
  - { offsetInCU: 0x23741, offset: 0x35478, size: 0x8, addend: 0x0, symName: __ZNSt3__117__compressed_pairIPNS_6threadENS_9allocatorIS1_EEE6secondB7v160006Ev, symObjAddr: 0xA7C0, symBinAddr: 0x100010EF0, symSize: 0x20 }
  - { offsetInCU: 0x23767, offset: 0x3549E, size: 0x8, addend: 0x0, symName: __ZNSt3__122__compressed_pair_elemINS_9allocatorINS_6threadEEELi1ELb1EE5__getB7v160006Ev, symObjAddr: 0xA7E0, symBinAddr: 0x100010F10, symSize: 0x10 }
  - { offsetInCU: 0x2378D, offset: 0x354C4, size: 0x8, addend: 0x0, symName: __ZNKSt3__16vectorINS_6threadENS_9allocatorIS1_EEE9__end_capB7v160006Ev, symObjAddr: 0xA7F0, symBinAddr: 0x100010F20, symSize: 0x20 }
  - { offsetInCU: 0x237B3, offset: 0x354EA, size: 0x8, addend: 0x0, symName: __ZNKSt3__117__compressed_pairIPNS_6threadENS_9allocatorIS1_EEE5firstB7v160006Ev, symObjAddr: 0xA810, symBinAddr: 0x100010F40, symSize: 0x20 }
  - { offsetInCU: 0x237D9, offset: 0x35510, size: 0x8, addend: 0x0, symName: __ZNKSt3__122__compressed_pair_elemIPNS_6threadELi0ELb0EE5__getB7v160006Ev, symObjAddr: 0xA830, symBinAddr: 0x100010F60, symSize: 0x10 }
  - { offsetInCU: 0x237FF, offset: 0x35536, size: 0x8, addend: 0x0, symName: __ZNSt3__16vectorINS_10unique_ptrI4BotsNS_14default_deleteIS2_EEEENS_9allocatorIS5_EEEC2B7v160006Ev, symObjAddr: 0xA840, symBinAddr: 0x100010F70, symSize: 0x60 }
  - { offsetInCU: 0x23828, offset: 0x3555F, size: 0x8, addend: 0x0, symName: __ZNSt3__117__compressed_pairIPNS_10unique_ptrI4BotsNS_14default_deleteIS2_EEEENS_9allocatorIS5_EEEC1B7v160006IDnNS_18__default_init_tagEEEOT_OT0_, symObjAddr: 0xA8A0, symBinAddr: 0x100010FD0, symSize: 0x30 }
  - { offsetInCU: 0x2387F, offset: 0x355B6, size: 0x8, addend: 0x0, symName: __ZNSt3__117__compressed_pairIPNS_10unique_ptrI4BotsNS_14default_deleteIS2_EEEENS_9allocatorIS5_EEEC2B7v160006IDnNS_18__default_init_tagEEEOT_OT0_, symObjAddr: 0xA8E0, symBinAddr: 0x100011010, symSize: 0x40 }
  - { offsetInCU: 0x238D6, offset: 0x3560D, size: 0x8, addend: 0x0, symName: __ZNSt3__122__compressed_pair_elemIPNS_10unique_ptrI4BotsNS_14default_deleteIS2_EEEELi0ELb0EEC2B7v160006IDnvEEOT_, symObjAddr: 0xA920, symBinAddr: 0x100011050, symSize: 0x20 }
  - { offsetInCU: 0x23917, offset: 0x3564E, size: 0x8, addend: 0x0, symName: __ZNSt3__122__compressed_pair_elemINS_9allocatorINS_10unique_ptrI4BotsNS_14default_deleteIS3_EEEEEELi1ELb1EEC2B7v160006ENS_18__default_init_tagE, symObjAddr: 0xA940, symBinAddr: 0x100011070, symSize: 0x20 }
  - { offsetInCU: 0x2394B, offset: 0x35682, size: 0x8, addend: 0x0, symName: __ZNSt3__19allocatorINS_10unique_ptrI4BotsNS_14default_deleteIS2_EEEEEC2B7v160006Ev, symObjAddr: 0xA960, symBinAddr: 0x100011090, symSize: 0x20 }
  - { offsetInCU: 0x23974, offset: 0x356AB, size: 0x8, addend: 0x0, symName: __ZNSt3__116__non_trivial_ifILb1ENS_9allocatorINS_10unique_ptrI4BotsNS_14default_deleteIS3_EEEEEEEC2B7v160006Ev, symObjAddr: 0xA980, symBinAddr: 0x1000110B0, symSize: 0x10 }
  - { offsetInCU: 0x2399D, offset: 0x356D4, size: 0x8, addend: 0x0, symName: __ZNSt3__16vectorINS_10unique_ptrI4BotsNS_14default_deleteIS2_EEEENS_9allocatorIS5_EEED2B7v160006Ev, symObjAddr: 0xA990, symBinAddr: 0x1000110C0, symSize: 0x40 }
  - { offsetInCU: 0x239C6, offset: 0x356FD, size: 0x8, addend: 0x0, symName: __ZNSt3__16vectorINS_10unique_ptrI4BotsNS_14default_deleteIS2_EEEENS_9allocatorIS5_EEE16__destroy_vectorC1ERS8_, symObjAddr: 0xA9D0, symBinAddr: 0x100011100, symSize: 0x30 }
  - { offsetInCU: 0x239FE, offset: 0x35735, size: 0x8, addend: 0x0, symName: __ZNSt3__16vectorINS_10unique_ptrI4BotsNS_14default_deleteIS2_EEEENS_9allocatorIS5_EEE16__destroy_vectorclB7v160006Ev, symObjAddr: 0xAA00, symBinAddr: 0x100011130, symSize: 0x90 }
  - { offsetInCU: 0x23A24, offset: 0x3575B, size: 0x8, addend: 0x0, symName: __ZNSt3__16vectorINS_10unique_ptrI4BotsNS_14default_deleteIS2_EEEENS_9allocatorIS5_EEE16__destroy_vectorC2ERS8_, symObjAddr: 0xAA90, symBinAddr: 0x1000111C0, symSize: 0x20 }
  - { offsetInCU: 0x23A5C, offset: 0x35793, size: 0x8, addend: 0x0, symName: __ZNKSt3__16vectorINS_10unique_ptrI4BotsNS_14default_deleteIS2_EEEENS_9allocatorIS5_EEE17__annotate_deleteB7v160006Ev, symObjAddr: 0xAAB0, symBinAddr: 0x1000111E0, symSize: 0xB0 }
  - { offsetInCU: 0x23A82, offset: 0x357B9, size: 0x8, addend: 0x0, symName: __ZNSt3__16vectorINS_10unique_ptrI4BotsNS_14default_deleteIS2_EEEENS_9allocatorIS5_EEE7__clearB7v160006Ev, symObjAddr: 0xAB70, symBinAddr: 0x1000112A0, symSize: 0x20 }
  - { offsetInCU: 0x23AA8, offset: 0x357DF, size: 0x8, addend: 0x0, symName: __ZNSt3__116allocator_traitsINS_9allocatorINS_10unique_ptrI4BotsNS_14default_deleteIS3_EEEEEEE10deallocateB7v160006ERS7_PS6_m, symObjAddr: 0xAB90, symBinAddr: 0x1000112C0, symSize: 0x30 }
  - { offsetInCU: 0x23AEA, offset: 0x35821, size: 0x8, addend: 0x0, symName: __ZNSt3__16vectorINS_10unique_ptrI4BotsNS_14default_deleteIS2_EEEENS_9allocatorIS5_EEE7__allocB7v160006Ev, symObjAddr: 0xABC0, symBinAddr: 0x1000112F0, symSize: 0x20 }
  - { offsetInCU: 0x23B10, offset: 0x35847, size: 0x8, addend: 0x0, symName: __ZNKSt3__16vectorINS_10unique_ptrI4BotsNS_14default_deleteIS2_EEEENS_9allocatorIS5_EEE8capacityB7v160006Ev, symObjAddr: 0xABE0, symBinAddr: 0x100011310, symSize: 0x30 }
  - { offsetInCU: 0x23B36, offset: 0x3586D, size: 0x8, addend: 0x0, symName: __ZNKSt3__16vectorINS_10unique_ptrI4BotsNS_14default_deleteIS2_EEEENS_9allocatorIS5_EEE31__annotate_contiguous_containerB7v160006EPKvSA_SA_SA_, symObjAddr: 0xAC10, symBinAddr: 0x100011340, symSize: 0x20 }
  - { offsetInCU: 0x23B88, offset: 0x358BF, size: 0x8, addend: 0x0, symName: __ZNKSt3__16vectorINS_10unique_ptrI4BotsNS_14default_deleteIS2_EEEENS_9allocatorIS5_EEE4dataB7v160006Ev, symObjAddr: 0xAC30, symBinAddr: 0x100011360, symSize: 0x20 }
  - { offsetInCU: 0x23BAE, offset: 0x358E5, size: 0x8, addend: 0x0, symName: __ZNKSt3__16vectorINS_10unique_ptrI4BotsNS_14default_deleteIS2_EEEENS_9allocatorIS5_EEE4sizeB7v160006Ev, symObjAddr: 0xAC50, symBinAddr: 0x100011380, symSize: 0x20 }
  - { offsetInCU: 0x23BD4, offset: 0x3590B, size: 0x8, addend: 0x0, symName: __ZNSt3__16vectorINS_10unique_ptrI4BotsNS_14default_deleteIS2_EEEENS_9allocatorIS5_EEE22__base_destruct_at_endB7v160006EPS5_, symObjAddr: 0xAC80, symBinAddr: 0x1000113B0, symSize: 0x80 }
  - { offsetInCU: 0x23C19, offset: 0x35950, size: 0x8, addend: 0x0, symName: __ZNSt3__116allocator_traitsINS_9allocatorINS_10unique_ptrI4BotsNS_14default_deleteIS3_EEEEEEE7destroyB7v160006IS6_vEEvRS7_PT_, symObjAddr: 0xAD00, symBinAddr: 0x100011430, symSize: 0x30 }
  - { offsetInCU: 0x23C56, offset: 0x3598D, size: 0x8, addend: 0x0, symName: __ZNSt3__19allocatorINS_10unique_ptrI4BotsNS_14default_deleteIS2_EEEEE7destroyB7v160006EPS5_, symObjAddr: 0xAD30, symBinAddr: 0x100011460, symSize: 0x20 }
  - { offsetInCU: 0x23C8A, offset: 0x359C1, size: 0x8, addend: 0x0, symName: __ZNSt3__19allocatorINS_10unique_ptrI4BotsNS_14default_deleteIS2_EEEEE10deallocateB7v160006EPS5_m, symObjAddr: 0xAD50, symBinAddr: 0x100011480, symSize: 0x40 }
  - { offsetInCU: 0x23CCC, offset: 0x35A03, size: 0x8, addend: 0x0, symName: __ZNSt3__117__compressed_pairIPNS_10unique_ptrI4BotsNS_14default_deleteIS2_EEEENS_9allocatorIS5_EEE6secondB7v160006Ev, symObjAddr: 0xAD90, symBinAddr: 0x1000114C0, symSize: 0x20 }
  - { offsetInCU: 0x23CF2, offset: 0x35A29, size: 0x8, addend: 0x0, symName: __ZNSt3__122__compressed_pair_elemINS_9allocatorINS_10unique_ptrI4BotsNS_14default_deleteIS3_EEEEEELi1ELb1EE5__getB7v160006Ev, symObjAddr: 0xADB0, symBinAddr: 0x1000114E0, symSize: 0x10 }
  - { offsetInCU: 0x23D18, offset: 0x35A4F, size: 0x8, addend: 0x0, symName: __ZNKSt3__16vectorINS_10unique_ptrI4BotsNS_14default_deleteIS2_EEEENS_9allocatorIS5_EEE9__end_capB7v160006Ev, symObjAddr: 0xADC0, symBinAddr: 0x1000114F0, symSize: 0x20 }
  - { offsetInCU: 0x23D3E, offset: 0x35A75, size: 0x8, addend: 0x0, symName: __ZNKSt3__117__compressed_pairIPNS_10unique_ptrI4BotsNS_14default_deleteIS2_EEEENS_9allocatorIS5_EEE5firstB7v160006Ev, symObjAddr: 0xADE0, symBinAddr: 0x100011510, symSize: 0x20 }
  - { offsetInCU: 0x23D64, offset: 0x35A9B, size: 0x8, addend: 0x0, symName: __ZNKSt3__122__compressed_pair_elemIPNS_10unique_ptrI4BotsNS_14default_deleteIS2_EEEELi0ELb0EE5__getB7v160006Ev, symObjAddr: 0xAE00, symBinAddr: 0x100011530, symSize: 0x10 }
  - { offsetInCU: 0x23D8A, offset: 0x35AC1, size: 0x8, addend: 0x0, symName: __ZNSt3__110unique_ptrI4BotsNS_14default_deleteIS1_EEEC1B7v160006ILb1EvEEPS1_, symObjAddr: 0xAE10, symBinAddr: 0x100011540, symSize: 0x30 }
  - { offsetInCU: 0x23DCC, offset: 0x35B03, size: 0x8, addend: 0x0, symName: __ZNSt3__110unique_ptrI4BotsNS_14default_deleteIS1_EEEC2B7v160006ILb1EvEEPS1_, symObjAddr: 0xAE40, symBinAddr: 0x100011570, symSize: 0x40 }
  - { offsetInCU: 0x23E0E, offset: 0x35B45, size: 0x8, addend: 0x0, symName: __ZNSt3__117__compressed_pairIP4BotsNS_14default_deleteIS1_EEEC1B7v160006IRS2_NS_16__value_init_tagEEEOT_OT0_, symObjAddr: 0xAE80, symBinAddr: 0x1000115B0, symSize: 0x30 }
  - { offsetInCU: 0x23E65, offset: 0x35B9C, size: 0x8, addend: 0x0, symName: __ZNSt3__117__compressed_pairIP4BotsNS_14default_deleteIS1_EEEC2B7v160006IRS2_NS_16__value_init_tagEEEOT_OT0_, symObjAddr: 0xAEB0, symBinAddr: 0x1000115E0, symSize: 0x40 }
  - { offsetInCU: 0x23EBC, offset: 0x35BF3, size: 0x8, addend: 0x0, symName: __ZNSt3__122__compressed_pair_elemIP4BotsLi0ELb0EEC2B7v160006IRS2_vEEOT_, symObjAddr: 0xAEF0, symBinAddr: 0x100011620, symSize: 0x20 }
  - { offsetInCU: 0x23EFD, offset: 0x35C34, size: 0x8, addend: 0x0, symName: __ZNSt3__122__compressed_pair_elemINS_14default_deleteI4BotsEELi1ELb1EEC2B7v160006ENS_16__value_init_tagE, symObjAddr: 0xAF10, symBinAddr: 0x100011640, symSize: 0x10 }
  - { offsetInCU: 0x23F31, offset: 0x35C68, size: 0x8, addend: 0x0, symName: __ZNSt3__110unique_ptrI4BotsNS_14default_deleteIS1_EEED2B7v160006Ev, symObjAddr: 0xAF20, symBinAddr: 0x100011650, symSize: 0x20 }
  - { offsetInCU: 0x23F5A, offset: 0x35C91, size: 0x8, addend: 0x0, symName: __ZNSt3__110unique_ptrI4BotsNS_14default_deleteIS1_EEE5resetB7v160006EPS1_, symObjAddr: 0xAF40, symBinAddr: 0x100011670, symSize: 0x70 }
  - { offsetInCU: 0x23F9F, offset: 0x35CD6, size: 0x8, addend: 0x0, symName: __ZNSt3__117__compressed_pairIP4BotsNS_14default_deleteIS1_EEE5firstB7v160006Ev, symObjAddr: 0xAFB0, symBinAddr: 0x1000116E0, symSize: 0x20 }
  - { offsetInCU: 0x23FC5, offset: 0x35CFC, size: 0x8, addend: 0x0, symName: __ZNSt3__117__compressed_pairIP4BotsNS_14default_deleteIS1_EEE6secondB7v160006Ev, symObjAddr: 0xAFD0, symBinAddr: 0x100011700, symSize: 0x20 }
  - { offsetInCU: 0x23FEB, offset: 0x35D22, size: 0x8, addend: 0x0, symName: __ZNKSt3__114default_deleteI4BotsEclB7v160006EPS1_, symObjAddr: 0xAFF0, symBinAddr: 0x100011720, symSize: 0x40 }
  - { offsetInCU: 0x2401F, offset: 0x35D56, size: 0x8, addend: 0x0, symName: __ZNSt3__122__compressed_pair_elemIP4BotsLi0ELb0EE5__getB7v160006Ev, symObjAddr: 0xB030, symBinAddr: 0x100011760, symSize: 0x10 }
  - { offsetInCU: 0x24045, offset: 0x35D7C, size: 0x8, addend: 0x0, symName: __ZNSt3__122__compressed_pair_elemINS_14default_deleteI4BotsEELi1ELb1EE5__getB7v160006Ev, symObjAddr: 0xB040, symBinAddr: 0x100011770, symSize: 0x10 }
  - { offsetInCU: 0x2406B, offset: 0x35DA2, size: 0x8, addend: 0x0, symName: __ZNSt3__16vectorINS_10unique_ptrI4BotsNS_14default_deleteIS2_EEEENS_9allocatorIS5_EEE9__end_capB7v160006Ev, symObjAddr: 0xB050, symBinAddr: 0x100011780, symSize: 0x20 }
  - { offsetInCU: 0x24091, offset: 0x35DC8, size: 0x8, addend: 0x0, symName: __ZNSt3__16vectorINS_10unique_ptrI4BotsNS_14default_deleteIS2_EEEENS_9allocatorIS5_EEE22__construct_one_at_endB7v160006IJS5_EEEvDpOT_, symObjAddr: 0xB070, symBinAddr: 0x1000117A0, symSize: 0x90 }
  - { offsetInCU: 0x240E1, offset: 0x35E18, size: 0x8, addend: 0x0, symName: __ZNSt3__16vectorINS_10unique_ptrI4BotsNS_14default_deleteIS2_EEEENS_9allocatorIS5_EEE24__emplace_back_slow_pathIJS5_EEEvDpOT_, symObjAddr: 0xB100, symBinAddr: 0x100011830, symSize: 0xD0 }
  - { offsetInCU: 0x24143, offset: 0x35E7A, size: 0x8, addend: 0x0, symName: __ZNSt3__117__compressed_pairIPNS_10unique_ptrI4BotsNS_14default_deleteIS2_EEEENS_9allocatorIS5_EEE5firstB7v160006Ev, symObjAddr: 0xB1D0, symBinAddr: 0x100011900, symSize: 0x20 }
  - { offsetInCU: 0x24169, offset: 0x35EA0, size: 0x8, addend: 0x0, symName: __ZNSt3__122__compressed_pair_elemIPNS_10unique_ptrI4BotsNS_14default_deleteIS2_EEEELi0ELb0EE5__getB7v160006Ev, symObjAddr: 0xB1F0, symBinAddr: 0x100011920, symSize: 0x10 }
  - { offsetInCU: 0x241A8, offset: 0x35EDF, size: 0x8, addend: 0x0, symName: __ZNSt3__16vectorINS_10unique_ptrI4BotsNS_14default_deleteIS2_EEEENS_9allocatorIS5_EEE21_ConstructTransactionC1B7v160006ERS8_m, symObjAddr: 0xB200, symBinAddr: 0x100011930, symSize: 0x30 }
  - { offsetInCU: 0x241EF, offset: 0x35F26, size: 0x8, addend: 0x0, symName: __ZNSt3__116allocator_traitsINS_9allocatorINS_10unique_ptrI4BotsNS_14default_deleteIS3_EEEEEEE9constructB7v160006IS6_JS6_EvEEvRS7_PT_DpOT0_, symObjAddr: 0xB230, symBinAddr: 0x100011960, symSize: 0x30 }
  - { offsetInCU: 0x24246, offset: 0x35F7D, size: 0x8, addend: 0x0, symName: __ZNSt3__16vectorINS_10unique_ptrI4BotsNS_14default_deleteIS2_EEEENS_9allocatorIS5_EEE21_ConstructTransactionD1B7v160006Ev, symObjAddr: 0xB260, symBinAddr: 0x100011990, symSize: 0x20 }
  - { offsetInCU: 0x2426F, offset: 0x35FA6, size: 0x8, addend: 0x0, symName: __ZNSt3__16vectorINS_10unique_ptrI4BotsNS_14default_deleteIS2_EEEENS_9allocatorIS5_EEE21_ConstructTransactionC2B7v160006ERS8_m, symObjAddr: 0xB280, symBinAddr: 0x1000119B0, symSize: 0x40 }
  - { offsetInCU: 0x242B6, offset: 0x35FED, size: 0x8, addend: 0x0, symName: __ZNSt3__19allocatorINS_10unique_ptrI4BotsNS_14default_deleteIS2_EEEEE9constructB7v160006IS5_JS5_EEEvPT_DpOT0_, symObjAddr: 0xB2C0, symBinAddr: 0x1000119F0, symSize: 0x30 }
  - { offsetInCU: 0x2430C, offset: 0x36043, size: 0x8, addend: 0x0, symName: __ZNSt3__110unique_ptrI4BotsNS_14default_deleteIS1_EEEC1B7v160006EOS4_, symObjAddr: 0xB2F0, symBinAddr: 0x100011A20, symSize: 0x30 }
  - { offsetInCU: 0x24343, offset: 0x3607A, size: 0x8, addend: 0x0, symName: __ZNSt3__110unique_ptrI4BotsNS_14default_deleteIS1_EEEC2B7v160006EOS4_, symObjAddr: 0xB320, symBinAddr: 0x100011A50, symSize: 0x60 }
  - { offsetInCU: 0x2437A, offset: 0x360B1, size: 0x8, addend: 0x0, symName: __ZNSt3__110unique_ptrI4BotsNS_14default_deleteIS1_EEE7releaseB7v160006Ev, symObjAddr: 0xB380, symBinAddr: 0x100011AB0, symSize: 0x40 }
  - { offsetInCU: 0x243B0, offset: 0x360E7, size: 0x8, addend: 0x0, symName: __ZNSt3__110unique_ptrI4BotsNS_14default_deleteIS1_EEE11get_deleterB7v160006Ev, symObjAddr: 0xB3C0, symBinAddr: 0x100011AF0, symSize: 0x20 }
  - { offsetInCU: 0x243DB, offset: 0x36112, size: 0x8, addend: 0x0, symName: __ZNSt3__117__compressed_pairIP4BotsNS_14default_deleteIS1_EEEC1B7v160006IS2_S4_EEOT_OT0_, symObjAddr: 0xB3E0, symBinAddr: 0x100011B10, symSize: 0x30 }
  - { offsetInCU: 0x24432, offset: 0x36169, size: 0x8, addend: 0x0, symName: __ZNSt3__117__compressed_pairIP4BotsNS_14default_deleteIS1_EEEC2B7v160006IS2_S4_EEOT_OT0_, symObjAddr: 0xB410, symBinAddr: 0x100011B40, symSize: 0x40 }
  - { offsetInCU: 0x24489, offset: 0x361C0, size: 0x8, addend: 0x0, symName: __ZNSt3__122__compressed_pair_elemIP4BotsLi0ELb0EEC2B7v160006IS2_vEEOT_, symObjAddr: 0xB450, symBinAddr: 0x100011B80, symSize: 0x20 }
  - { offsetInCU: 0x244CA, offset: 0x36201, size: 0x8, addend: 0x0, symName: __ZNSt3__122__compressed_pair_elemINS_14default_deleteI4BotsEELi1ELb1EEC2B7v160006IS3_vEEOT_, symObjAddr: 0xB470, symBinAddr: 0x100011BA0, symSize: 0x10 }
  - { offsetInCU: 0x2450B, offset: 0x36242, size: 0x8, addend: 0x0, symName: __ZNSt3__16vectorINS_10unique_ptrI4BotsNS_14default_deleteIS2_EEEENS_9allocatorIS5_EEE21_ConstructTransactionD2B7v160006Ev, symObjAddr: 0xB480, symBinAddr: 0x100011BB0, symSize: 0x20 }
  - { offsetInCU: 0x24534, offset: 0x3626B, size: 0x8, addend: 0x0, symName: __ZNKSt3__16vectorINS_10unique_ptrI4BotsNS_14default_deleteIS2_EEEENS_9allocatorIS5_EEE11__recommendB7v160006Em, symObjAddr: 0xB4A0, symBinAddr: 0x100011BD0, symSize: 0xA0 }
  - { offsetInCU: 0x2458B, offset: 0x362C2, size: 0x8, addend: 0x0, symName: __ZNSt3__114__split_bufferINS_10unique_ptrI4BotsNS_14default_deleteIS2_EEEERNS_9allocatorIS5_EEEC1EmmS8_, symObjAddr: 0xB540, symBinAddr: 0x100011C70, symSize: 0x40 }
  - { offsetInCU: 0x245E1, offset: 0x36318, size: 0x8, addend: 0x0, symName: __ZNSt3__114__split_bufferINS_10unique_ptrI4BotsNS_14default_deleteIS2_EEEERNS_9allocatorIS5_EEED1Ev, symObjAddr: 0xB6B0, symBinAddr: 0x100011DE0, symSize: 0x20 }
  - { offsetInCU: 0x2460D, offset: 0x36344, size: 0x8, addend: 0x0, symName: __ZNKSt3__16vectorINS_10unique_ptrI4BotsNS_14default_deleteIS2_EEEENS_9allocatorIS5_EEE8max_sizeEv, symObjAddr: 0xB6D0, symBinAddr: 0x100011E00, symSize: 0x60 }
  - { offsetInCU: 0x24635, offset: 0x3636C, size: 0x8, addend: 0x0, symName: __ZNKSt3__16vectorINS_10unique_ptrI4BotsNS_14default_deleteIS2_EEEENS_9allocatorIS5_EEE20__throw_length_errorB7v160006Ev, symObjAddr: 0xB730, symBinAddr: 0x100011E60, symSize: 0x20 }
  - { offsetInCU: 0x24665, offset: 0x3639C, size: 0x8, addend: 0x0, symName: __ZNSt3__116allocator_traitsINS_9allocatorINS_10unique_ptrI4BotsNS_14default_deleteIS3_EEEEEEE8max_sizeB7v160006IS7_vEEmRKS7_, symObjAddr: 0xB750, symBinAddr: 0x100011E80, symSize: 0x20 }
  - { offsetInCU: 0x24693, offset: 0x363CA, size: 0x8, addend: 0x0, symName: __ZNKSt3__16vectorINS_10unique_ptrI4BotsNS_14default_deleteIS2_EEEENS_9allocatorIS5_EEE7__allocB7v160006Ev, symObjAddr: 0xB770, symBinAddr: 0x100011EA0, symSize: 0x20 }
  - { offsetInCU: 0x246B9, offset: 0x363F0, size: 0x8, addend: 0x0, symName: __ZNKSt3__19allocatorINS_10unique_ptrI4BotsNS_14default_deleteIS2_EEEEE8max_sizeB7v160006Ev, symObjAddr: 0xB790, symBinAddr: 0x100011EC0, symSize: 0x20 }
  - { offsetInCU: 0x246DF, offset: 0x36416, size: 0x8, addend: 0x0, symName: __ZNKSt3__117__compressed_pairIPNS_10unique_ptrI4BotsNS_14default_deleteIS2_EEEENS_9allocatorIS5_EEE6secondB7v160006Ev, symObjAddr: 0xB7B0, symBinAddr: 0x100011EE0, symSize: 0x20 }
  - { offsetInCU: 0x24705, offset: 0x3643C, size: 0x8, addend: 0x0, symName: __ZNKSt3__122__compressed_pair_elemINS_9allocatorINS_10unique_ptrI4BotsNS_14default_deleteIS3_EEEEEELi1ELb1EE5__getB7v160006Ev, symObjAddr: 0xB7D0, symBinAddr: 0x100011F00, symSize: 0x10 }
  - { offsetInCU: 0x2472B, offset: 0x36462, size: 0x8, addend: 0x0, symName: __ZNSt3__114__split_bufferINS_10unique_ptrI4BotsNS_14default_deleteIS2_EEEERNS_9allocatorIS5_EEEC2EmmS8_, symObjAddr: 0xB7E0, symBinAddr: 0x100011F10, symSize: 0xD0 }
  - { offsetInCU: 0x247A0, offset: 0x364D7, size: 0x8, addend: 0x0, symName: __ZNSt3__117__compressed_pairIPNS_10unique_ptrI4BotsNS_14default_deleteIS2_EEEERNS_9allocatorIS5_EEEC1B7v160006IDnS9_EEOT_OT0_, symObjAddr: 0xB8B0, symBinAddr: 0x100011FE0, symSize: 0x30 }
  - { offsetInCU: 0x247F7, offset: 0x3652E, size: 0x8, addend: 0x0, symName: __ZNSt3__114__split_bufferINS_10unique_ptrI4BotsNS_14default_deleteIS2_EEEERNS_9allocatorIS5_EEE7__allocB7v160006Ev, symObjAddr: 0xB920, symBinAddr: 0x100012050, symSize: 0x20 }
  - { offsetInCU: 0x2481D, offset: 0x36554, size: 0x8, addend: 0x0, symName: __ZNSt3__114__split_bufferINS_10unique_ptrI4BotsNS_14default_deleteIS2_EEEERNS_9allocatorIS5_EEE9__end_capB7v160006Ev, symObjAddr: 0xB940, symBinAddr: 0x100012070, symSize: 0x20 }
  - { offsetInCU: 0x24843, offset: 0x3657A, size: 0x8, addend: 0x0, symName: __ZNSt3__117__compressed_pairIPNS_10unique_ptrI4BotsNS_14default_deleteIS2_EEEERNS_9allocatorIS5_EEEC2B7v160006IDnS9_EEOT_OT0_, symObjAddr: 0xB960, symBinAddr: 0x100012090, symSize: 0x40 }
  - { offsetInCU: 0x2489A, offset: 0x365D1, size: 0x8, addend: 0x0, symName: __ZNSt3__122__compressed_pair_elemIRNS_9allocatorINS_10unique_ptrI4BotsNS_14default_deleteIS3_EEEEEELi1ELb0EEC2B7v160006IS8_vEEOT_, symObjAddr: 0xB9A0, symBinAddr: 0x1000120D0, symSize: 0x20 }
  - { offsetInCU: 0x248DB, offset: 0x36612, size: 0x8, addend: 0x0, symName: __ZNSt3__19allocatorINS_10unique_ptrI4BotsNS_14default_deleteIS2_EEEEE8allocateB7v160006Em, symObjAddr: 0xB9C0, symBinAddr: 0x1000120F0, symSize: 0x50 }
  - { offsetInCU: 0x2490F, offset: 0x36646, size: 0x8, addend: 0x0, symName: __ZNSt3__117__compressed_pairIPNS_10unique_ptrI4BotsNS_14default_deleteIS2_EEEERNS_9allocatorIS5_EEE6secondB7v160006Ev, symObjAddr: 0xBA10, symBinAddr: 0x100012140, symSize: 0x20 }
  - { offsetInCU: 0x24935, offset: 0x3666C, size: 0x8, addend: 0x0, symName: __ZNSt3__122__compressed_pair_elemIRNS_9allocatorINS_10unique_ptrI4BotsNS_14default_deleteIS3_EEEEEELi1ELb0EE5__getB7v160006Ev, symObjAddr: 0xBA30, symBinAddr: 0x100012160, symSize: 0x20 }
  - { offsetInCU: 0x2495B, offset: 0x36692, size: 0x8, addend: 0x0, symName: __ZNSt3__117__compressed_pairIPNS_10unique_ptrI4BotsNS_14default_deleteIS2_EEEERNS_9allocatorIS5_EEE5firstB7v160006Ev, symObjAddr: 0xBA50, symBinAddr: 0x100012180, symSize: 0x20 }
  - { offsetInCU: 0x24981, offset: 0x366B8, size: 0x8, addend: 0x0, symName: __ZNSt3__116reverse_iteratorIPNS_10unique_ptrI4BotsNS_14default_deleteIS2_EEEEEC1B7v160006ES6_, symObjAddr: 0xBBF0, symBinAddr: 0x100012320, symSize: 0x30 }
  - { offsetInCU: 0x249B8, offset: 0x366EF, size: 0x8, addend: 0x0, symName: __ZNKSt3__116reverse_iteratorIPNS_10unique_ptrI4BotsNS_14default_deleteIS2_EEEEE4baseB7v160006Ev, symObjAddr: 0xBC20, symBinAddr: 0x100012350, symSize: 0x20 }
  - { offsetInCU: 0x249DE, offset: 0x36715, size: 0x8, addend: 0x0, symName: __ZNKSt3__16vectorINS_10unique_ptrI4BotsNS_14default_deleteIS2_EEEENS_9allocatorIS5_EEE14__annotate_newB7v160006Em, symObjAddr: 0xBC80, symBinAddr: 0x1000123B0, symSize: 0xB0 }
  - { offsetInCU: 0x24A13, offset: 0x3674A, size: 0x8, addend: 0x0, symName: __ZNSt3__129_AllocatorDestroyRangeReverseINS_9allocatorINS_10unique_ptrI4BotsNS_14default_deleteIS3_EEEEEENS_16reverse_iteratorIPS6_EEEC1B7v160006ERS7_RSA_SD_, symObjAddr: 0xBDA0, symBinAddr: 0x1000124D0, symSize: 0x40 }
  - { offsetInCU: 0x24A69, offset: 0x367A0, size: 0x8, addend: 0x0, symName: __ZNKSt3__116reverse_iteratorIPNS_10unique_ptrI4BotsNS_14default_deleteIS2_EEEEEdeB7v160006Ev, symObjAddr: 0xBE40, symBinAddr: 0x100012570, symSize: 0x30 }
  - { offsetInCU: 0x24A9D, offset: 0x367D4, size: 0x8, addend: 0x0, symName: __ZNSt3__116reverse_iteratorIPNS_10unique_ptrI4BotsNS_14default_deleteIS2_EEEEEppB7v160006Ev, symObjAddr: 0xBE70, symBinAddr: 0x1000125A0, symSize: 0x20 }
  - { offsetInCU: 0x24AC3, offset: 0x367FA, size: 0x8, addend: 0x0, symName: __ZNSt3__128__exception_guard_exceptionsINS_29_AllocatorDestroyRangeReverseINS_9allocatorINS_10unique_ptrI4BotsNS_14default_deleteIS4_EEEEEENS_16reverse_iteratorIPS7_EEEEE10__completeB7v160006Ev, symObjAddr: 0xBE90, symBinAddr: 0x1000125C0, symSize: 0x20 }
  - { offsetInCU: 0x24AE9, offset: 0x36820, size: 0x8, addend: 0x0, symName: __ZNSt3__128__exception_guard_exceptionsINS_29_AllocatorDestroyRangeReverseINS_9allocatorINS_10unique_ptrI4BotsNS_14default_deleteIS4_EEEEEENS_16reverse_iteratorIPS7_EEEEED1B7v160006Ev, symObjAddr: 0xBEB0, symBinAddr: 0x1000125E0, symSize: 0x20 }
  - { offsetInCU: 0x24B12, offset: 0x36849, size: 0x8, addend: 0x0, symName: __ZNSt3__128__exception_guard_exceptionsINS_29_AllocatorDestroyRangeReverseINS_9allocatorINS_10unique_ptrI4BotsNS_14default_deleteIS4_EEEEEENS_16reverse_iteratorIPS7_EEEEEC1B7v160006ESC_, symObjAddr: 0xBED0, symBinAddr: 0x100012600, symSize: 0x40 }
  - { offsetInCU: 0x24B49, offset: 0x36880, size: 0x8, addend: 0x0, symName: __ZNSt3__128__exception_guard_exceptionsINS_29_AllocatorDestroyRangeReverseINS_9allocatorINS_10unique_ptrI4BotsNS_14default_deleteIS4_EEEEEENS_16reverse_iteratorIPS7_EEEEEC2B7v160006ESC_, symObjAddr: 0xBF10, symBinAddr: 0x100012640, symSize: 0x30 }
  - { offsetInCU: 0x24B80, offset: 0x368B7, size: 0x8, addend: 0x0, symName: __ZNSt3__129_AllocatorDestroyRangeReverseINS_9allocatorINS_10unique_ptrI4BotsNS_14default_deleteIS3_EEEEEENS_16reverse_iteratorIPS6_EEEC2B7v160006ERS7_RSA_SD_, symObjAddr: 0xBF40, symBinAddr: 0x100012670, symSize: 0x40 }
  - { offsetInCU: 0x24BDB, offset: 0x36912, size: 0x8, addend: 0x0, symName: __ZNSt3__119__to_address_helperINS_16reverse_iteratorIPNS_10unique_ptrI4BotsNS_14default_deleteIS3_EEEEEEvE6__callB7v160006ERKS8_, symObjAddr: 0xBF80, symBinAddr: 0x1000126B0, symSize: 0x40 }
  - { offsetInCU: 0x24BFE, offset: 0x36935, size: 0x8, addend: 0x0, symName: __ZNKSt3__116reverse_iteratorIPNS_10unique_ptrI4BotsNS_14default_deleteIS2_EEEEEptB7v160006Ev, symObjAddr: 0xBFC0, symBinAddr: 0x1000126F0, symSize: 0x20 }
  - { offsetInCU: 0x24C24, offset: 0x3695B, size: 0x8, addend: 0x0, symName: __ZNSt3__128__exception_guard_exceptionsINS_29_AllocatorDestroyRangeReverseINS_9allocatorINS_10unique_ptrI4BotsNS_14default_deleteIS4_EEEEEENS_16reverse_iteratorIPS7_EEEEED2B7v160006Ev, symObjAddr: 0xBFE0, symBinAddr: 0x100012710, symSize: 0x40 }
  - { offsetInCU: 0x24C4D, offset: 0x36984, size: 0x8, addend: 0x0, symName: __ZNKSt3__129_AllocatorDestroyRangeReverseINS_9allocatorINS_10unique_ptrI4BotsNS_14default_deleteIS3_EEEEEENS_16reverse_iteratorIPS6_EEEclB7v160006Ev, symObjAddr: 0xC020, symBinAddr: 0x100012750, symSize: 0xF0 }
  - { offsetInCU: 0x24C74, offset: 0x369AB, size: 0x8, addend: 0x0, symName: __ZNSt3__116reverse_iteratorINS0_IPNS_10unique_ptrI4BotsNS_14default_deleteIS2_EEEEEEEC1B7v160006ES7_, symObjAddr: 0xC180, symBinAddr: 0x1000128B0, symSize: 0x30 }
  - { offsetInCU: 0x24CAB, offset: 0x369E2, size: 0x8, addend: 0x0, symName: __ZNSt3__116reverse_iteratorINS0_IPNS_10unique_ptrI4BotsNS_14default_deleteIS2_EEEEEEEppB7v160006Ev, symObjAddr: 0xC220, symBinAddr: 0x100012950, symSize: 0x30 }
  - { offsetInCU: 0x24CD1, offset: 0x36A08, size: 0x8, addend: 0x0, symName: __ZNKSt3__116reverse_iteratorINS0_IPNS_10unique_ptrI4BotsNS_14default_deleteIS2_EEEEEEE4baseB7v160006Ev, symObjAddr: 0xC250, symBinAddr: 0x100012980, symSize: 0x20 }
  - { offsetInCU: 0x24CFC, offset: 0x36A33, size: 0x8, addend: 0x0, symName: __ZNSt3__119__to_address_helperINS_16reverse_iteratorINS1_IPNS_10unique_ptrI4BotsNS_14default_deleteIS3_EEEEEEEEvE6__callB7v160006ERKS9_, symObjAddr: 0xC270, symBinAddr: 0x1000129A0, symSize: 0x40 }
  - { offsetInCU: 0x24D1F, offset: 0x36A56, size: 0x8, addend: 0x0, symName: __ZNKSt3__116reverse_iteratorINS0_IPNS_10unique_ptrI4BotsNS_14default_deleteIS2_EEEEEEEptB7v160006Ev, symObjAddr: 0xC2B0, symBinAddr: 0x1000129E0, symSize: 0x20 }
  - { offsetInCU: 0x24D45, offset: 0x36A7C, size: 0x8, addend: 0x0, symName: __ZNKSt3__116reverse_iteratorINS0_IPNS_10unique_ptrI4BotsNS_14default_deleteIS2_EEEEEEEdeB7v160006Ev, symObjAddr: 0xC2D0, symBinAddr: 0x100012A00, symSize: 0x40 }
  - { offsetInCU: 0x24D79, offset: 0x36AB0, size: 0x8, addend: 0x0, symName: __ZNSt3__116reverse_iteratorIPNS_10unique_ptrI4BotsNS_14default_deleteIS2_EEEEEmmB7v160006Ev, symObjAddr: 0xC310, symBinAddr: 0x100012A40, symSize: 0x20 }
  - { offsetInCU: 0x24D9F, offset: 0x36AD6, size: 0x8, addend: 0x0, symName: __ZNSt3__116reverse_iteratorINS0_IPNS_10unique_ptrI4BotsNS_14default_deleteIS2_EEEEEEEC2B7v160006ES7_, symObjAddr: 0xC330, symBinAddr: 0x100012A60, symSize: 0x40 }
  - { offsetInCU: 0x24DD6, offset: 0x36B0D, size: 0x8, addend: 0x0, symName: __ZNSt3__116reverse_iteratorIPNS_10unique_ptrI4BotsNS_14default_deleteIS2_EEEEEC2B7v160006ES6_, symObjAddr: 0xC370, symBinAddr: 0x100012AA0, symSize: 0x30 }
  - { offsetInCU: 0x24E0D, offset: 0x36B44, size: 0x8, addend: 0x0, symName: __ZNSt3__114__split_bufferINS_10unique_ptrI4BotsNS_14default_deleteIS2_EEEERNS_9allocatorIS5_EEED2Ev, symObjAddr: 0xC3A0, symBinAddr: 0x100012AD0, symSize: 0x70 }
  - { offsetInCU: 0x24E39, offset: 0x36B70, size: 0x8, addend: 0x0, symName: __ZNSt3__114__split_bufferINS_10unique_ptrI4BotsNS_14default_deleteIS2_EEEERNS_9allocatorIS5_EEE5clearB7v160006Ev, symObjAddr: 0xC410, symBinAddr: 0x100012B40, symSize: 0x20 }
  - { offsetInCU: 0x24E5F, offset: 0x36B96, size: 0x8, addend: 0x0, symName: __ZNKSt3__114__split_bufferINS_10unique_ptrI4BotsNS_14default_deleteIS2_EEEERNS_9allocatorIS5_EEE8capacityB7v160006Ev, symObjAddr: 0xC430, symBinAddr: 0x100012B60, symSize: 0x30 }
  - { offsetInCU: 0x24E85, offset: 0x36BBC, size: 0x8, addend: 0x0, symName: __ZNSt3__114__split_bufferINS_10unique_ptrI4BotsNS_14default_deleteIS2_EEEERNS_9allocatorIS5_EEE17__destruct_at_endB7v160006EPS5_, symObjAddr: 0xC460, symBinAddr: 0x100012B90, symSize: 0x30 }
  - { offsetInCU: 0x24EB9, offset: 0x36BF0, size: 0x8, addend: 0x0, symName: __ZNSt3__114__split_bufferINS_10unique_ptrI4BotsNS_14default_deleteIS2_EEEERNS_9allocatorIS5_EEE17__destruct_at_endB7v160006EPS5_NS_17integral_constantIbLb0EEE, symObjAddr: 0xC490, symBinAddr: 0x100012BC0, symSize: 0x80 }
  - { offsetInCU: 0x24EFA, offset: 0x36C31, size: 0x8, addend: 0x0, symName: __ZNKSt3__114__split_bufferINS_10unique_ptrI4BotsNS_14default_deleteIS2_EEEERNS_9allocatorIS5_EEE9__end_capB7v160006Ev, symObjAddr: 0xC510, symBinAddr: 0x100012C40, symSize: 0x20 }
  - { offsetInCU: 0x24F20, offset: 0x36C57, size: 0x8, addend: 0x0, symName: __ZNKSt3__117__compressed_pairIPNS_10unique_ptrI4BotsNS_14default_deleteIS2_EEEERNS_9allocatorIS5_EEE5firstB7v160006Ev, symObjAddr: 0xC530, symBinAddr: 0x100012C60, symSize: 0x20 }
  - { offsetInCU: 0x24F46, offset: 0x36C7D, size: 0x8, addend: 0x0, symName: __ZNKSt3__117__compressed_pairIP4BotsNS_14default_deleteIS1_EEE5firstB7v160006Ev, symObjAddr: 0xC550, symBinAddr: 0x100012C80, symSize: 0x20 }
  - { offsetInCU: 0x24F6C, offset: 0x36CA3, size: 0x8, addend: 0x0, symName: __ZNKSt3__122__compressed_pair_elemIP4BotsLi0ELb0EE5__getB7v160006Ev, symObjAddr: 0xC570, symBinAddr: 0x100012CA0, symSize: 0x10 }
  - { offsetInCU: 0x24F97, offset: 0x36CCE, size: 0x8, addend: 0x0, symName: __ZNSt3__117reference_wrapperI6MarketEC1B7v160006IRS1_vEEOT_, symObjAddr: 0xC580, symBinAddr: 0x100012CB0, symSize: 0x30 }
  - { offsetInCU: 0x24FD8, offset: 0x36D0F, size: 0x8, addend: 0x0, symName: __ZNSt3__117reference_wrapperI6MarketEC2B7v160006IRS1_vEEOT_, symObjAddr: 0xC5B0, symBinAddr: 0x100012CE0, symSize: 0x30 }
  - { offsetInCU: 0x2503B, offset: 0x36D72, size: 0x8, addend: 0x0, symName: __ZNSt3__117reference_wrapperINS_5mutexEEC1B7v160006IRS1_vEEOT_, symObjAddr: 0xC5E0, symBinAddr: 0x100012D10, symSize: 0x30 }
  - { offsetInCU: 0x2507C, offset: 0x36DB3, size: 0x8, addend: 0x0, symName: __ZNSt3__117reference_wrapperINS_5mutexEEC2B7v160006IRS1_vEEOT_, symObjAddr: 0xC610, symBinAddr: 0x100012D40, symSize: 0x30 }
  - { offsetInCU: 0x250DA, offset: 0x36E11, size: 0x8, addend: 0x0, symName: __ZNSt3__16vectorINS_6threadENS_9allocatorIS1_EEE9__end_capB7v160006Ev, symObjAddr: 0xC640, symBinAddr: 0x100012D70, symSize: 0x20 }
  - { offsetInCU: 0x25100, offset: 0x36E37, size: 0x8, addend: 0x0, symName: __ZNSt3__16vectorINS_6threadENS_9allocatorIS1_EEE22__construct_one_at_endB7v160006IJM4BotsFvR6MarketRNS_5mutexEidRNS_6atomicIbEEEPS6_NS_17reference_wrapperIS7_EENSH_IS9_EERiSK_NSH_ISC_EEEEEvDpOT_, symObjAddr: 0xC660, symBinAddr: 0x100012D90, symSize: 0xD0 }
  - { offsetInCU: 0x251C9, offset: 0x36F00, size: 0x8, addend: 0x0, symName: __ZNSt3__16vectorINS_6threadENS_9allocatorIS1_EEE24__emplace_back_slow_pathIJM4BotsFvR6MarketRNS_5mutexEidRNS_6atomicIbEEEPS6_NS_17reference_wrapperIS7_EENSH_IS9_EERiSK_NSH_ISC_EEEEEvDpOT_, symObjAddr: 0xC730, symBinAddr: 0x100012E60, symSize: 0x130 }
  - { offsetInCU: 0x252A4, offset: 0x36FDB, size: 0x8, addend: 0x0, symName: __ZNSt3__117__compressed_pairIPNS_6threadENS_9allocatorIS1_EEE5firstB7v160006Ev, symObjAddr: 0xC860, symBinAddr: 0x100012F90, symSize: 0x20 }
  - { offsetInCU: 0x252CA, offset: 0x37001, size: 0x8, addend: 0x0, symName: __ZNSt3__122__compressed_pair_elemIPNS_6threadELi0ELb0EE5__getB7v160006Ev, symObjAddr: 0xC880, symBinAddr: 0x100012FB0, symSize: 0x10 }
  - { offsetInCU: 0x25309, offset: 0x37040, size: 0x8, addend: 0x0, symName: __ZNSt3__16vectorINS_6threadENS_9allocatorIS1_EEE21_ConstructTransactionC1B7v160006ERS4_m, symObjAddr: 0xC890, symBinAddr: 0x100012FC0, symSize: 0x30 }
  - { offsetInCU: 0x25350, offset: 0x37087, size: 0x8, addend: 0x0, symName: __ZNSt3__116allocator_traitsINS_9allocatorINS_6threadEEEE9constructB7v160006IS2_JM4BotsFvR6MarketRNS_5mutexEidRNS_6atomicIbEEEPS6_NS_17reference_wrapperIS7_EENSH_IS9_EERiSK_NSH_ISC_EEEvEEvRS3_PT_DpOT0_, symObjAddr: 0xC8C0, symBinAddr: 0x100012FF0, symSize: 0x70 }
  - { offsetInCU: 0x2541F, offset: 0x37156, size: 0x8, addend: 0x0, symName: __ZNSt3__16vectorINS_6threadENS_9allocatorIS1_EEE21_ConstructTransactionD1B7v160006Ev, symObjAddr: 0xC930, symBinAddr: 0x100013060, symSize: 0x20 }
  - { offsetInCU: 0x25448, offset: 0x3717F, size: 0x8, addend: 0x0, symName: __ZNSt3__16vectorINS_6threadENS_9allocatorIS1_EEE21_ConstructTransactionC2B7v160006ERS4_m, symObjAddr: 0xC950, symBinAddr: 0x100013080, symSize: 0x40 }
  - { offsetInCU: 0x2548F, offset: 0x371C6, size: 0x8, addend: 0x0, symName: __ZNSt3__19allocatorINS_6threadEE9constructB7v160006IS1_JM4BotsFvR6MarketRNS_5mutexEidRNS_6atomicIbEEEPS4_NS_17reference_wrapperIS5_EENSF_IS7_EERiSI_NSF_ISA_EEEEEvPT_DpOT0_, symObjAddr: 0xC990, symBinAddr: 0x1000130C0, symSize: 0x60 }
  - { offsetInCU: 0x25557, offset: 0x3728E, size: 0x8, addend: 0x0, symName: __ZNSt3__16threadC1IM4BotsFvR6MarketRNS_5mutexEidRNS_6atomicIbEEEJPS2_NS_17reference_wrapperIS3_EENSD_IS5_EERiSG_NSD_IS8_EEEvEEOT_DpOT0_, symObjAddr: 0xC9F0, symBinAddr: 0x100013120, symSize: 0x60 }
  - { offsetInCU: 0x25617, offset: 0x3734E, size: 0x8, addend: 0x0, symName: __ZNSt3__16threadC2IM4BotsFvR6MarketRNS_5mutexEidRNS_6atomicIbEEEJPS2_NS_17reference_wrapperIS3_EENSD_IS5_EERiSG_NSD_IS8_EEEvEEOT_DpOT0_, symObjAddr: 0xCA50, symBinAddr: 0x100013180, symSize: 0x190 }
  - { offsetInCU: 0x25710, offset: 0x37447, size: 0x8, addend: 0x0, symName: __ZNSt3__15tupleIJNS_10unique_ptrINS_15__thread_structENS_14default_deleteIS2_EEEEM4BotsFvR6MarketRNS_5mutexEidRNS_6atomicIbEEEPS6_NS_17reference_wrapperIS7_EENSH_IS9_EEiiNSH_ISC_EEEEC1B7v160006IJS5_SF_SG_SI_SJ_RiSN_SK_ELi0EEEDpOT_, symObjAddr: 0xCBE0, symBinAddr: 0x100013310, symSize: 0x70 }
  - { offsetInCU: 0x25876, offset: 0x375AD, size: 0x8, addend: 0x0, symName: __ZNSt3__110unique_ptrINS_5tupleIJNS0_INS_15__thread_structENS_14default_deleteIS2_EEEEM4BotsFvR6MarketRNS_5mutexEidRNS_6atomicIbEEEPS6_NS_17reference_wrapperIS7_EENSH_IS9_EEiiNSH_ISC_EEEEENS3_ISL_EEEC1B7v160006ILb1EvEEPSL_, symObjAddr: 0xCC50, symBinAddr: 0x100013380, symSize: 0x30 }
  - { offsetInCU: 0x258B8, offset: 0x375EF, size: 0x8, addend: 0x0, symName: __ZNKSt3__110unique_ptrINS_5tupleIJNS0_INS_15__thread_structENS_14default_deleteIS2_EEEEM4BotsFvR6MarketRNS_5mutexEidRNS_6atomicIbEEEPS6_NS_17reference_wrapperIS7_EENSH_IS9_EEiiNSH_ISC_EEEEENS3_ISL_EEE3getB7v160006Ev, symObjAddr: 0xCD20, symBinAddr: 0x100013450, symSize: 0x20 }
  - { offsetInCU: 0x258DE, offset: 0x37615, size: 0x8, addend: 0x0, symName: __ZNSt3__110unique_ptrINS_5tupleIJNS0_INS_15__thread_structENS_14default_deleteIS2_EEEEM4BotsFvR6MarketRNS_5mutexEidRNS_6atomicIbEEEPS6_NS_17reference_wrapperIS7_EENSH_IS9_EEiiNSH_ISC_EEEEENS3_ISL_EEE7releaseB7v160006Ev, symObjAddr: 0xCD40, symBinAddr: 0x100013470, symSize: 0x40 }
  - { offsetInCU: 0x25914, offset: 0x3764B, size: 0x8, addend: 0x0, symName: __ZNSt3__110unique_ptrINS_5tupleIJNS0_INS_15__thread_structENS_14default_deleteIS2_EEEEM4BotsFvR6MarketRNS_5mutexEidRNS_6atomicIbEEEPS6_NS_17reference_wrapperIS7_EENSH_IS9_EEiiNSH_ISC_EEEEENS3_ISL_EEED1B7v160006Ev, symObjAddr: 0xCD80, symBinAddr: 0x1000134B0, symSize: 0x20 }
  - { offsetInCU: 0x2593D, offset: 0x37674, size: 0x8, addend: 0x0, symName: __ZNSt3__15tupleIJNS_10unique_ptrINS_15__thread_structENS_14default_deleteIS2_EEEEM4BotsFvR6MarketRNS_5mutexEidRNS_6atomicIbEEEPS6_NS_17reference_wrapperIS7_EENSH_IS9_EEiiNSH_ISC_EEEEC2B7v160006IJS5_SF_SG_SI_SJ_RiSN_SK_ELi0EEEDpOT_, symObjAddr: 0xCDA0, symBinAddr: 0x1000134D0, symSize: 0x70 }
  - { offsetInCU: 0x25A12, offset: 0x37749, size: 0x8, addend: 0x0, symName: __ZNSt3__112__tuple_implINS_15__tuple_indicesIJLm0ELm1ELm2ELm3ELm4ELm5ELm6ELm7EEEEJNS_10unique_ptrINS_15__thread_structENS_14default_deleteIS4_EEEEM4BotsFvR6MarketRNS_5mutexEidRNS_6atomicIbEEEPS8_NS_17reference_wrapperIS9_EENSJ_ISB_EEiiNSJ_ISE_EEEEC1B7v160006IJLm0ELm1ELm2ELm3ELm4ELm5ELm6ELm7EEJS7_SH_SI_SK_SL_iiSM_EJEJEJS7_SH_SI_SK_SL_RiSP_SM_EEENS1_IJXspT_EEEENS_13__tuple_typesIJDpT0_EEENS1_IJXspT1_EEEENSR_IJDpT2_EEEDpOT3_, symObjAddr: 0xCE10, symBinAddr: 0x100013540, symSize: 0x70 }
  - { offsetInCU: 0x25B7D, offset: 0x378B4, size: 0x8, addend: 0x0, symName: __ZNSt3__112__tuple_implINS_15__tuple_indicesIJLm0ELm1ELm2ELm3ELm4ELm5ELm6ELm7EEEEJNS_10unique_ptrINS_15__thread_structENS_14default_deleteIS4_EEEEM4BotsFvR6MarketRNS_5mutexEidRNS_6atomicIbEEEPS8_NS_17reference_wrapperIS9_EENSJ_ISB_EEiiNSJ_ISE_EEEEC2B7v160006IJLm0ELm1ELm2ELm3ELm4ELm5ELm6ELm7EEJS7_SH_SI_SK_SL_iiSM_EJEJEJS7_SH_SI_SK_SL_RiSP_SM_EEENS1_IJXspT_EEEENS_13__tuple_typesIJDpT0_EEENS1_IJXspT1_EEEENSR_IJDpT2_EEEDpOT3_, symObjAddr: 0xCE80, symBinAddr: 0x1000135B0, symSize: 0xC0 }
  - { offsetInCU: 0x25CE8, offset: 0x37A1F, size: 0x8, addend: 0x0, symName: __ZNSt3__112__tuple_leafILm1EM4BotsFvR6MarketRNS_5mutexEidRNS_6atomicIbEEELb0EEC2B7v160006ISA_vEEOT_, symObjAddr: 0xCF40, symBinAddr: 0x100013670, symSize: 0x30 }
  - { offsetInCU: 0x25D2A, offset: 0x37A61, size: 0x8, addend: 0x0, symName: __ZNSt3__112__tuple_leafILm2EP4BotsLb0EEC2B7v160006IS2_vEEOT_, symObjAddr: 0xCF70, symBinAddr: 0x1000136A0, symSize: 0x20 }
  - { offsetInCU: 0x25D6C, offset: 0x37AA3, size: 0x8, addend: 0x0, symName: __ZNSt3__112__tuple_leafILm3ENS_17reference_wrapperI6MarketEELb0EEC2B7v160006IS3_vEEOT_, symObjAddr: 0xCF90, symBinAddr: 0x1000136C0, symSize: 0x20 }
  - { offsetInCU: 0x25DAE, offset: 0x37AE5, size: 0x8, addend: 0x0, symName: __ZNSt3__112__tuple_leafILm4ENS_17reference_wrapperINS_5mutexEEELb0EEC2B7v160006IS3_vEEOT_, symObjAddr: 0xCFB0, symBinAddr: 0x1000136E0, symSize: 0x20 }
  - { offsetInCU: 0x25DF0, offset: 0x37B27, size: 0x8, addend: 0x0, symName: __ZNSt3__112__tuple_leafILm5EiLb0EEC2B7v160006IRivEEOT_, symObjAddr: 0xCFD0, symBinAddr: 0x100013700, symSize: 0x20 }
  - { offsetInCU: 0x25E32, offset: 0x37B69, size: 0x8, addend: 0x0, symName: __ZNSt3__112__tuple_leafILm6EiLb0EEC2B7v160006IRivEEOT_, symObjAddr: 0xCFF0, symBinAddr: 0x100013720, symSize: 0x20 }
  - { offsetInCU: 0x25E74, offset: 0x37BAB, size: 0x8, addend: 0x0, symName: __ZNSt3__112__tuple_leafILm7ENS_17reference_wrapperINS_6atomicIbEEEELb0EEC2B7v160006IS4_vEEOT_, symObjAddr: 0xD010, symBinAddr: 0x100013740, symSize: 0x20 }
  - { offsetInCU: 0x25EB6, offset: 0x37BED, size: 0x8, addend: 0x0, symName: __ZNSt3__110unique_ptrINS_5tupleIJNS0_INS_15__thread_structENS_14default_deleteIS2_EEEEM4BotsFvR6MarketRNS_5mutexEidRNS_6atomicIbEEEPS6_NS_17reference_wrapperIS7_EENSH_IS9_EEiiNSH_ISC_EEEEENS3_ISL_EEEC2B7v160006ILb1EvEEPSL_, symObjAddr: 0xD030, symBinAddr: 0x100013760, symSize: 0x40 }
  - { offsetInCU: 0x25EF8, offset: 0x37C2F, size: 0x8, addend: 0x0, symName: __ZNSt3__117__compressed_pairIPNS_5tupleIJNS_10unique_ptrINS_15__thread_structENS_14default_deleteIS3_EEEEM4BotsFvR6MarketRNS_5mutexEidRNS_6atomicIbEEEPS7_NS_17reference_wrapperIS8_EENSI_ISA_EEiiNSI_ISD_EEEEENS4_ISM_EEEC1B7v160006IRSN_NS_16__value_init_tagEEEOT_OT0_, symObjAddr: 0xD070, symBinAddr: 0x1000137A0, symSize: 0x30 }
  - { offsetInCU: 0x25F4F, offset: 0x37C86, size: 0x8, addend: 0x0, symName: __ZNSt3__117__compressed_pairIPNS_5tupleIJNS_10unique_ptrINS_15__thread_structENS_14default_deleteIS3_EEEEM4BotsFvR6MarketRNS_5mutexEidRNS_6atomicIbEEEPS7_NS_17reference_wrapperIS8_EENSI_ISA_EEiiNSI_ISD_EEEEENS4_ISM_EEEC2B7v160006IRSN_NS_16__value_init_tagEEEOT_OT0_, symObjAddr: 0xD0A0, symBinAddr: 0x1000137D0, symSize: 0x40 }
  - { offsetInCU: 0x25FA6, offset: 0x37CDD, size: 0x8, addend: 0x0, symName: __ZNSt3__122__compressed_pair_elemIPNS_5tupleIJNS_10unique_ptrINS_15__thread_structENS_14default_deleteIS3_EEEEM4BotsFvR6MarketRNS_5mutexEidRNS_6atomicIbEEEPS7_NS_17reference_wrapperIS8_EENSI_ISA_EEiiNSI_ISD_EEEEELi0ELb0EEC2B7v160006IRSN_vEEOT_, symObjAddr: 0xD0E0, symBinAddr: 0x100013810, symSize: 0x20 }
  - { offsetInCU: 0x25FE7, offset: 0x37D1E, size: 0x8, addend: 0x0, symName: __ZNSt3__122__compressed_pair_elemINS_14default_deleteINS_5tupleIJNS_10unique_ptrINS_15__thread_structENS1_IS4_EEEEM4BotsFvR6MarketRNS_5mutexEidRNS_6atomicIbEEEPS7_NS_17reference_wrapperIS8_EENSI_ISA_EEiiNSI_ISD_EEEEEEELi1ELb1EEC2B7v160006ENS_16__value_init_tagE, symObjAddr: 0xD100, symBinAddr: 0x100013830, symSize: 0x10 }
  - { offsetInCU: 0x2601B, offset: 0x37D52, size: 0x8, addend: 0x0, symName: __ZNKSt3__117reference_wrapperI6MarketEcvRS1_B7v160006Ev, symObjAddr: 0xD380, symBinAddr: 0x100013AB0, symSize: 0x20 }
  - { offsetInCU: 0x26041, offset: 0x37D78, size: 0x8, addend: 0x0, symName: __ZNKSt3__117reference_wrapperINS_5mutexEEcvRS1_B7v160006Ev, symObjAddr: 0xD3A0, symBinAddr: 0x100013AD0, symSize: 0x20 }
  - { offsetInCU: 0x26067, offset: 0x37D9E, size: 0x8, addend: 0x0, symName: __ZNSt3__112__tuple_leafILm1EM4BotsFvR6MarketRNS_5mutexEidRNS_6atomicIbEEELb0EE3getB7v160006Ev, symObjAddr: 0xD3C0, symBinAddr: 0x100013AF0, symSize: 0x10 }
  - { offsetInCU: 0x2608D, offset: 0x37DC4, size: 0x8, addend: 0x0, symName: __ZNSt3__112__tuple_leafILm2EP4BotsLb0EE3getB7v160006Ev, symObjAddr: 0xD3D0, symBinAddr: 0x100013B00, symSize: 0x10 }
  - { offsetInCU: 0x260B3, offset: 0x37DEA, size: 0x8, addend: 0x0, symName: __ZNSt3__112__tuple_leafILm3ENS_17reference_wrapperI6MarketEELb0EE3getB7v160006Ev, symObjAddr: 0xD3E0, symBinAddr: 0x100013B10, symSize: 0x10 }
  - { offsetInCU: 0x260D9, offset: 0x37E10, size: 0x8, addend: 0x0, symName: __ZNSt3__112__tuple_leafILm4ENS_17reference_wrapperINS_5mutexEEELb0EE3getB7v160006Ev, symObjAddr: 0xD3F0, symBinAddr: 0x100013B20, symSize: 0x10 }
  - { offsetInCU: 0x260FF, offset: 0x37E36, size: 0x8, addend: 0x0, symName: __ZNSt3__112__tuple_leafILm5EiLb0EE3getB7v160006Ev, symObjAddr: 0xD400, symBinAddr: 0x100013B30, symSize: 0x10 }
  - { offsetInCU: 0x26125, offset: 0x37E5C, size: 0x8, addend: 0x0, symName: __ZNSt3__112__tuple_leafILm6EiLb0EE3getB7v160006Ev, symObjAddr: 0xD410, symBinAddr: 0x100013B40, symSize: 0x10 }
  - { offsetInCU: 0x2614B, offset: 0x37E82, size: 0x8, addend: 0x0, symName: __ZNSt3__112__tuple_leafILm7ENS_17reference_wrapperINS_6atomicIbEEEELb0EE3getB7v160006Ev, symObjAddr: 0xD420, symBinAddr: 0x100013B50, symSize: 0x10 }
  - { offsetInCU: 0x26171, offset: 0x37EA8, size: 0x8, addend: 0x0, symName: __ZNKSt3__117__compressed_pairIPNS_5tupleIJNS_10unique_ptrINS_15__thread_structENS_14default_deleteIS3_EEEEM4BotsFvR6MarketRNS_5mutexEidRNS_6atomicIbEEEPS7_NS_17reference_wrapperIS8_EENSI_ISA_EEiiNSI_ISD_EEEEENS4_ISM_EEE5firstB7v160006Ev, symObjAddr: 0xD430, symBinAddr: 0x100013B60, symSize: 0x20 }
  - { offsetInCU: 0x26197, offset: 0x37ECE, size: 0x8, addend: 0x0, symName: __ZNKSt3__122__compressed_pair_elemIPNS_5tupleIJNS_10unique_ptrINS_15__thread_structENS_14default_deleteIS3_EEEEM4BotsFvR6MarketRNS_5mutexEidRNS_6atomicIbEEEPS7_NS_17reference_wrapperIS8_EENSI_ISA_EEiiNSI_ISD_EEEEELi0ELb0EE5__getB7v160006Ev, symObjAddr: 0xD450, symBinAddr: 0x100013B80, symSize: 0x10 }
  - { offsetInCU: 0x261BD, offset: 0x37EF4, size: 0x8, addend: 0x0, symName: __ZNSt3__117__compressed_pairIPNS_5tupleIJNS_10unique_ptrINS_15__thread_structENS_14default_deleteIS3_EEEEM4BotsFvR6MarketRNS_5mutexEidRNS_6atomicIbEEEPS7_NS_17reference_wrapperIS8_EENSI_ISA_EEiiNSI_ISD_EEEEENS4_ISM_EEE5firstB7v160006Ev, symObjAddr: 0xD460, symBinAddr: 0x100013B90, symSize: 0x20 }
  - { offsetInCU: 0x261E3, offset: 0x37F1A, size: 0x8, addend: 0x0, symName: __ZNSt3__122__compressed_pair_elemIPNS_5tupleIJNS_10unique_ptrINS_15__thread_structENS_14default_deleteIS3_EEEEM4BotsFvR6MarketRNS_5mutexEidRNS_6atomicIbEEEPS7_NS_17reference_wrapperIS8_EENSI_ISA_EEiiNSI_ISD_EEEEELi0ELb0EE5__getB7v160006Ev, symObjAddr: 0xD480, symBinAddr: 0x100013BB0, symSize: 0x10 }
  - { offsetInCU: 0x26209, offset: 0x37F40, size: 0x8, addend: 0x0, symName: __ZNSt3__110unique_ptrINS_5tupleIJNS0_INS_15__thread_structENS_14default_deleteIS2_EEEEM4BotsFvR6MarketRNS_5mutexEidRNS_6atomicIbEEEPS6_NS_17reference_wrapperIS7_EENSH_IS9_EEiiNSH_ISC_EEEEENS3_ISL_EEED2B7v160006Ev, symObjAddr: 0xD490, symBinAddr: 0x100013BC0, symSize: 0x20 }
  - { offsetInCU: 0x26232, offset: 0x37F69, size: 0x8, addend: 0x0, symName: __ZNSt3__110unique_ptrINS_5tupleIJNS0_INS_15__thread_structENS_14default_deleteIS2_EEEEM4BotsFvR6MarketRNS_5mutexEidRNS_6atomicIbEEEPS6_NS_17reference_wrapperIS7_EENSH_IS9_EEiiNSH_ISC_EEEEENS3_ISL_EEE5resetB7v160006EPSL_, symObjAddr: 0xD4B0, symBinAddr: 0x100013BE0, symSize: 0x70 }
  - { offsetInCU: 0x26277, offset: 0x37FAE, size: 0x8, addend: 0x0, symName: __ZNSt3__117__compressed_pairIPNS_5tupleIJNS_10unique_ptrINS_15__thread_structENS_14default_deleteIS3_EEEEM4BotsFvR6MarketRNS_5mutexEidRNS_6atomicIbEEEPS7_NS_17reference_wrapperIS8_EENSI_ISA_EEiiNSI_ISD_EEEEENS4_ISM_EEE6secondB7v160006Ev, symObjAddr: 0xD520, symBinAddr: 0x100013C50, symSize: 0x20 }
  - { offsetInCU: 0x2629D, offset: 0x37FD4, size: 0x8, addend: 0x0, symName: __ZNKSt3__114default_deleteINS_5tupleIJNS_10unique_ptrINS_15__thread_structENS0_IS3_EEEEM4BotsFvR6MarketRNS_5mutexEidRNS_6atomicIbEEEPS6_NS_17reference_wrapperIS7_EENSH_IS9_EEiiNSH_ISC_EEEEEEclB7v160006EPSL_, symObjAddr: 0xD540, symBinAddr: 0x100013C70, symSize: 0x40 }
  - { offsetInCU: 0x262D1, offset: 0x38008, size: 0x8, addend: 0x0, symName: __ZNSt3__122__compressed_pair_elemINS_14default_deleteINS_5tupleIJNS_10unique_ptrINS_15__thread_structENS1_IS4_EEEEM4BotsFvR6MarketRNS_5mutexEidRNS_6atomicIbEEEPS7_NS_17reference_wrapperIS8_EENSI_ISA_EEiiNSI_ISD_EEEEEEELi1ELb1EE5__getB7v160006Ev, symObjAddr: 0xD580, symBinAddr: 0x100013CB0, symSize: 0x10 }
  - { offsetInCU: 0x262F7, offset: 0x3802E, size: 0x8, addend: 0x0, symName: __ZNSt3__15tupleIJNS_10unique_ptrINS_15__thread_structENS_14default_deleteIS2_EEEEM4BotsFvR6MarketRNS_5mutexEidRNS_6atomicIbEEEPS6_NS_17reference_wrapperIS7_EENSH_IS9_EEiiNSH_ISC_EEEED1Ev, symObjAddr: 0xD590, symBinAddr: 0x100013CC0, symSize: 0x20 }
  - { offsetInCU: 0x26324, offset: 0x3805B, size: 0x8, addend: 0x0, symName: __ZNSt3__15tupleIJNS_10unique_ptrINS_15__thread_structENS_14default_deleteIS2_EEEEM4BotsFvR6MarketRNS_5mutexEidRNS_6atomicIbEEEPS6_NS_17reference_wrapperIS7_EENSH_IS9_EEiiNSH_ISC_EEEED2Ev, symObjAddr: 0xD5B0, symBinAddr: 0x100013CE0, symSize: 0x20 }
  - { offsetInCU: 0x26351, offset: 0x38088, size: 0x8, addend: 0x0, symName: __ZNSt3__112__tuple_implINS_15__tuple_indicesIJLm0ELm1ELm2ELm3ELm4ELm5ELm6ELm7EEEEJNS_10unique_ptrINS_15__thread_structENS_14default_deleteIS4_EEEEM4BotsFvR6MarketRNS_5mutexEidRNS_6atomicIbEEEPS8_NS_17reference_wrapperIS9_EENSJ_ISB_EEiiNSJ_ISE_EEEED1Ev, symObjAddr: 0xD5D0, symBinAddr: 0x100013D00, symSize: 0x20 }
  - { offsetInCU: 0x2637E, offset: 0x380B5, size: 0x8, addend: 0x0, symName: __ZNSt3__112__tuple_implINS_15__tuple_indicesIJLm0ELm1ELm2ELm3ELm4ELm5ELm6ELm7EEEEJNS_10unique_ptrINS_15__thread_structENS_14default_deleteIS4_EEEEM4BotsFvR6MarketRNS_5mutexEidRNS_6atomicIbEEEPS8_NS_17reference_wrapperIS9_EENSJ_ISB_EEiiNSJ_ISE_EEEED2Ev, symObjAddr: 0xD5F0, symBinAddr: 0x100013D20, symSize: 0x20 }
  - { offsetInCU: 0x263AB, offset: 0x380E2, size: 0x8, addend: 0x0, symName: __ZNSt3__16vectorINS_6threadENS_9allocatorIS1_EEE21_ConstructTransactionD2B7v160006Ev, symObjAddr: 0xD610, symBinAddr: 0x100013D40, symSize: 0x20 }
  - { offsetInCU: 0x263D4, offset: 0x3810B, size: 0x8, addend: 0x0, symName: __ZNKSt3__16vectorINS_6threadENS_9allocatorIS1_EEE11__recommendB7v160006Em, symObjAddr: 0xD630, symBinAddr: 0x100013D60, symSize: 0xA0 }
  - { offsetInCU: 0x2642B, offset: 0x38162, size: 0x8, addend: 0x0, symName: __ZNSt3__114__split_bufferINS_6threadERNS_9allocatorIS1_EEEC1EmmS4_, symObjAddr: 0xD6D0, symBinAddr: 0x100013E00, symSize: 0x40 }
  - { offsetInCU: 0x26481, offset: 0x381B8, size: 0x8, addend: 0x0, symName: __ZNSt3__114__split_bufferINS_6threadERNS_9allocatorIS1_EEED1Ev, symObjAddr: 0xD840, symBinAddr: 0x100013F70, symSize: 0x20 }
  - { offsetInCU: 0x264AD, offset: 0x381E4, size: 0x8, addend: 0x0, symName: __ZNKSt3__16vectorINS_6threadENS_9allocatorIS1_EEE8max_sizeEv, symObjAddr: 0xD860, symBinAddr: 0x100013F90, symSize: 0x60 }
  - { offsetInCU: 0x264D5, offset: 0x3820C, size: 0x8, addend: 0x0, symName: __ZNKSt3__16vectorINS_6threadENS_9allocatorIS1_EEE20__throw_length_errorB7v160006Ev, symObjAddr: 0xD8C0, symBinAddr: 0x100013FF0, symSize: 0x20 }
  - { offsetInCU: 0x26505, offset: 0x3823C, size: 0x8, addend: 0x0, symName: __ZNSt3__116allocator_traitsINS_9allocatorINS_6threadEEEE8max_sizeB7v160006IS3_vEEmRKS3_, symObjAddr: 0xD8E0, symBinAddr: 0x100014010, symSize: 0x20 }
  - { offsetInCU: 0x26533, offset: 0x3826A, size: 0x8, addend: 0x0, symName: __ZNKSt3__16vectorINS_6threadENS_9allocatorIS1_EEE7__allocB7v160006Ev, symObjAddr: 0xD900, symBinAddr: 0x100014030, symSize: 0x20 }
  - { offsetInCU: 0x26559, offset: 0x38290, size: 0x8, addend: 0x0, symName: __ZNKSt3__19allocatorINS_6threadEE8max_sizeB7v160006Ev, symObjAddr: 0xD920, symBinAddr: 0x100014050, symSize: 0x20 }
  - { offsetInCU: 0x2657F, offset: 0x382B6, size: 0x8, addend: 0x0, symName: __ZNKSt3__117__compressed_pairIPNS_6threadENS_9allocatorIS1_EEE6secondB7v160006Ev, symObjAddr: 0xD940, symBinAddr: 0x100014070, symSize: 0x20 }
  - { offsetInCU: 0x265A5, offset: 0x382DC, size: 0x8, addend: 0x0, symName: __ZNKSt3__122__compressed_pair_elemINS_9allocatorINS_6threadEEELi1ELb1EE5__getB7v160006Ev, symObjAddr: 0xD960, symBinAddr: 0x100014090, symSize: 0x10 }
  - { offsetInCU: 0x265CB, offset: 0x38302, size: 0x8, addend: 0x0, symName: __ZNSt3__114__split_bufferINS_6threadERNS_9allocatorIS1_EEEC2EmmS4_, symObjAddr: 0xD970, symBinAddr: 0x1000140A0, symSize: 0xD0 }
  - { offsetInCU: 0x26640, offset: 0x38377, size: 0x8, addend: 0x0, symName: __ZNSt3__117__compressed_pairIPNS_6threadERNS_9allocatorIS1_EEEC1B7v160006IDnS5_EEOT_OT0_, symObjAddr: 0xDA40, symBinAddr: 0x100014170, symSize: 0x30 }
  - { offsetInCU: 0x26697, offset: 0x383CE, size: 0x8, addend: 0x0, symName: __ZNSt3__114__split_bufferINS_6threadERNS_9allocatorIS1_EEE7__allocB7v160006Ev, symObjAddr: 0xDAB0, symBinAddr: 0x1000141E0, symSize: 0x20 }
  - { offsetInCU: 0x266BD, offset: 0x383F4, size: 0x8, addend: 0x0, symName: __ZNSt3__114__split_bufferINS_6threadERNS_9allocatorIS1_EEE9__end_capB7v160006Ev, symObjAddr: 0xDAD0, symBinAddr: 0x100014200, symSize: 0x20 }
  - { offsetInCU: 0x266E3, offset: 0x3841A, size: 0x8, addend: 0x0, symName: __ZNSt3__117__compressed_pairIPNS_6threadERNS_9allocatorIS1_EEEC2B7v160006IDnS5_EEOT_OT0_, symObjAddr: 0xDAF0, symBinAddr: 0x100014220, symSize: 0x40 }
  - { offsetInCU: 0x2673A, offset: 0x38471, size: 0x8, addend: 0x0, symName: __ZNSt3__122__compressed_pair_elemIRNS_9allocatorINS_6threadEEELi1ELb0EEC2B7v160006IS4_vEEOT_, symObjAddr: 0xDB30, symBinAddr: 0x100014260, symSize: 0x20 }
  - { offsetInCU: 0x2677B, offset: 0x384B2, size: 0x8, addend: 0x0, symName: __ZNSt3__19allocatorINS_6threadEE8allocateB7v160006Em, symObjAddr: 0xDB50, symBinAddr: 0x100014280, symSize: 0x50 }
  - { offsetInCU: 0x267AF, offset: 0x384E6, size: 0x8, addend: 0x0, symName: __ZNSt3__117__compressed_pairIPNS_6threadERNS_9allocatorIS1_EEE6secondB7v160006Ev, symObjAddr: 0xDBA0, symBinAddr: 0x1000142D0, symSize: 0x20 }
  - { offsetInCU: 0x267D5, offset: 0x3850C, size: 0x8, addend: 0x0, symName: __ZNSt3__122__compressed_pair_elemIRNS_9allocatorINS_6threadEEELi1ELb0EE5__getB7v160006Ev, symObjAddr: 0xDBC0, symBinAddr: 0x1000142F0, symSize: 0x20 }
  - { offsetInCU: 0x267FB, offset: 0x38532, size: 0x8, addend: 0x0, symName: __ZNSt3__117__compressed_pairIPNS_6threadERNS_9allocatorIS1_EEE5firstB7v160006Ev, symObjAddr: 0xDBE0, symBinAddr: 0x100014310, symSize: 0x20 }
  - { offsetInCU: 0x26821, offset: 0x38558, size: 0x8, addend: 0x0, symName: __ZNSt3__116reverse_iteratorIPNS_6threadEEC1B7v160006ES2_, symObjAddr: 0xDD80, symBinAddr: 0x1000144B0, symSize: 0x30 }
  - { offsetInCU: 0x26858, offset: 0x3858F, size: 0x8, addend: 0x0, symName: __ZNKSt3__116reverse_iteratorIPNS_6threadEE4baseB7v160006Ev, symObjAddr: 0xDDB0, symBinAddr: 0x1000144E0, symSize: 0x20 }
  - { offsetInCU: 0x2687E, offset: 0x385B5, size: 0x8, addend: 0x0, symName: __ZNKSt3__16vectorINS_6threadENS_9allocatorIS1_EEE14__annotate_newB7v160006Em, symObjAddr: 0xDE10, symBinAddr: 0x100014540, symSize: 0xB0 }
  - { offsetInCU: 0x268B3, offset: 0x385EA, size: 0x8, addend: 0x0, symName: __ZNSt3__129_AllocatorDestroyRangeReverseINS_9allocatorINS_6threadEEENS_16reverse_iteratorIPS2_EEEC1B7v160006ERS3_RS6_S9_, symObjAddr: 0xDF30, symBinAddr: 0x100014660, symSize: 0x40 }
  - { offsetInCU: 0x26909, offset: 0x38640, size: 0x8, addend: 0x0, symName: __ZNSt3__116allocator_traitsINS_9allocatorINS_6threadEEEE9constructB7v160006IS2_JS2_EvEEvRS3_PT_DpOT0_, symObjAddr: 0xDFB0, symBinAddr: 0x1000146E0, symSize: 0x30 }
  - { offsetInCU: 0x26960, offset: 0x38697, size: 0x8, addend: 0x0, symName: __ZNKSt3__116reverse_iteratorIPNS_6threadEEdeB7v160006Ev, symObjAddr: 0xE000, symBinAddr: 0x100014730, symSize: 0x30 }
  - { offsetInCU: 0x26994, offset: 0x386CB, size: 0x8, addend: 0x0, symName: __ZNSt3__116reverse_iteratorIPNS_6threadEEppB7v160006Ev, symObjAddr: 0xE030, symBinAddr: 0x100014760, symSize: 0x20 }
  - { offsetInCU: 0x269BA, offset: 0x386F1, size: 0x8, addend: 0x0, symName: __ZNSt3__128__exception_guard_exceptionsINS_29_AllocatorDestroyRangeReverseINS_9allocatorINS_6threadEEENS_16reverse_iteratorIPS3_EEEEE10__completeB7v160006Ev, symObjAddr: 0xE050, symBinAddr: 0x100014780, symSize: 0x20 }
  - { offsetInCU: 0x269E0, offset: 0x38717, size: 0x8, addend: 0x0, symName: __ZNSt3__128__exception_guard_exceptionsINS_29_AllocatorDestroyRangeReverseINS_9allocatorINS_6threadEEENS_16reverse_iteratorIPS3_EEEEED1B7v160006Ev, symObjAddr: 0xE070, symBinAddr: 0x1000147A0, symSize: 0x20 }
  - { offsetInCU: 0x26A09, offset: 0x38740, size: 0x8, addend: 0x0, symName: __ZNSt3__128__exception_guard_exceptionsINS_29_AllocatorDestroyRangeReverseINS_9allocatorINS_6threadEEENS_16reverse_iteratorIPS3_EEEEEC1B7v160006ES8_, symObjAddr: 0xE090, symBinAddr: 0x1000147C0, symSize: 0x40 }
  - { offsetInCU: 0x26A40, offset: 0x38777, size: 0x8, addend: 0x0, symName: __ZNSt3__128__exception_guard_exceptionsINS_29_AllocatorDestroyRangeReverseINS_9allocatorINS_6threadEEENS_16reverse_iteratorIPS3_EEEEEC2B7v160006ES8_, symObjAddr: 0xE0D0, symBinAddr: 0x100014800, symSize: 0x30 }
  - { offsetInCU: 0x26A77, offset: 0x387AE, size: 0x8, addend: 0x0, symName: __ZNSt3__129_AllocatorDestroyRangeReverseINS_9allocatorINS_6threadEEENS_16reverse_iteratorIPS2_EEEC2B7v160006ERS3_RS6_S9_, symObjAddr: 0xE100, symBinAddr: 0x100014830, symSize: 0x40 }
  - { offsetInCU: 0x26ACD, offset: 0x38804, size: 0x8, addend: 0x0, symName: __ZNSt3__19allocatorINS_6threadEE9constructB7v160006IS1_JS1_EEEvPT_DpOT0_, symObjAddr: 0xE140, symBinAddr: 0x100014870, symSize: 0x30 }
  - { offsetInCU: 0x26B23, offset: 0x3885A, size: 0x8, addend: 0x0, symName: __ZNSt3__16threadC1B7v160006EOS0_, symObjAddr: 0xE170, symBinAddr: 0x1000148A0, symSize: 0x30 }
  - { offsetInCU: 0x26B5A, offset: 0x38891, size: 0x8, addend: 0x0, symName: __ZNSt3__16threadC2B7v160006EOS0_, symObjAddr: 0xE1A0, symBinAddr: 0x1000148D0, symSize: 0x30 }
  - { offsetInCU: 0x26B96, offset: 0x388CD, size: 0x8, addend: 0x0, symName: __ZNSt3__119__to_address_helperINS_16reverse_iteratorIPNS_6threadEEEvE6__callB7v160006ERKS4_, symObjAddr: 0xE1D0, symBinAddr: 0x100014900, symSize: 0x40 }
  - { offsetInCU: 0x26BB9, offset: 0x388F0, size: 0x8, addend: 0x0, symName: __ZNKSt3__116reverse_iteratorIPNS_6threadEEptB7v160006Ev, symObjAddr: 0xE210, symBinAddr: 0x100014940, symSize: 0x20 }
  - { offsetInCU: 0x26BDF, offset: 0x38916, size: 0x8, addend: 0x0, symName: __ZNSt3__128__exception_guard_exceptionsINS_29_AllocatorDestroyRangeReverseINS_9allocatorINS_6threadEEENS_16reverse_iteratorIPS3_EEEEED2B7v160006Ev, symObjAddr: 0xE230, symBinAddr: 0x100014960, symSize: 0x40 }
  - { offsetInCU: 0x26C08, offset: 0x3893F, size: 0x8, addend: 0x0, symName: __ZNKSt3__129_AllocatorDestroyRangeReverseINS_9allocatorINS_6threadEEENS_16reverse_iteratorIPS2_EEEclB7v160006Ev, symObjAddr: 0xE270, symBinAddr: 0x1000149A0, symSize: 0xF0 }
  - { offsetInCU: 0x26C2F, offset: 0x38966, size: 0x8, addend: 0x0, symName: __ZNSt3__116reverse_iteratorINS0_IPNS_6threadEEEEC1B7v160006ES3_, symObjAddr: 0xE3D0, symBinAddr: 0x100014B00, symSize: 0x30 }
  - { offsetInCU: 0x26C66, offset: 0x3899D, size: 0x8, addend: 0x0, symName: __ZNSt3__116reverse_iteratorINS0_IPNS_6threadEEEEppB7v160006Ev, symObjAddr: 0xE470, symBinAddr: 0x100014BA0, symSize: 0x30 }
  - { offsetInCU: 0x26C8C, offset: 0x389C3, size: 0x8, addend: 0x0, symName: __ZNKSt3__116reverse_iteratorINS0_IPNS_6threadEEEE4baseB7v160006Ev, symObjAddr: 0xE4A0, symBinAddr: 0x100014BD0, symSize: 0x20 }
  - { offsetInCU: 0x26CB7, offset: 0x389EE, size: 0x8, addend: 0x0, symName: __ZNSt3__119__to_address_helperINS_16reverse_iteratorINS1_IPNS_6threadEEEEEvE6__callB7v160006ERKS5_, symObjAddr: 0xE4C0, symBinAddr: 0x100014BF0, symSize: 0x40 }
  - { offsetInCU: 0x26CDA, offset: 0x38A11, size: 0x8, addend: 0x0, symName: __ZNKSt3__116reverse_iteratorINS0_IPNS_6threadEEEEptB7v160006Ev, symObjAddr: 0xE500, symBinAddr: 0x100014C30, symSize: 0x20 }
  - { offsetInCU: 0x26D00, offset: 0x38A37, size: 0x8, addend: 0x0, symName: __ZNKSt3__116reverse_iteratorINS0_IPNS_6threadEEEEdeB7v160006Ev, symObjAddr: 0xE520, symBinAddr: 0x100014C50, symSize: 0x40 }
  - { offsetInCU: 0x26D34, offset: 0x38A6B, size: 0x8, addend: 0x0, symName: __ZNSt3__116reverse_iteratorIPNS_6threadEEmmB7v160006Ev, symObjAddr: 0xE560, symBinAddr: 0x100014C90, symSize: 0x20 }
  - { offsetInCU: 0x26D5A, offset: 0x38A91, size: 0x8, addend: 0x0, symName: __ZNSt3__116reverse_iteratorINS0_IPNS_6threadEEEEC2B7v160006ES3_, symObjAddr: 0xE580, symBinAddr: 0x100014CB0, symSize: 0x40 }
  - { offsetInCU: 0x26D91, offset: 0x38AC8, size: 0x8, addend: 0x0, symName: __ZNSt3__116reverse_iteratorIPNS_6threadEEC2B7v160006ES2_, symObjAddr: 0xE5C0, symBinAddr: 0x100014CF0, symSize: 0x30 }
  - { offsetInCU: 0x26DC8, offset: 0x38AFF, size: 0x8, addend: 0x0, symName: __ZNSt3__114__split_bufferINS_6threadERNS_9allocatorIS1_EEED2Ev, symObjAddr: 0xE5F0, symBinAddr: 0x100014D20, symSize: 0x70 }
  - { offsetInCU: 0x26DF4, offset: 0x38B2B, size: 0x8, addend: 0x0, symName: __ZNSt3__114__split_bufferINS_6threadERNS_9allocatorIS1_EEE5clearB7v160006Ev, symObjAddr: 0xE660, symBinAddr: 0x100014D90, symSize: 0x20 }
  - { offsetInCU: 0x26E1A, offset: 0x38B51, size: 0x8, addend: 0x0, symName: __ZNKSt3__114__split_bufferINS_6threadERNS_9allocatorIS1_EEE8capacityB7v160006Ev, symObjAddr: 0xE680, symBinAddr: 0x100014DB0, symSize: 0x30 }
  - { offsetInCU: 0x26E40, offset: 0x38B77, size: 0x8, addend: 0x0, symName: __ZNSt3__114__split_bufferINS_6threadERNS_9allocatorIS1_EEE17__destruct_at_endB7v160006EPS1_, symObjAddr: 0xE6B0, symBinAddr: 0x100014DE0, symSize: 0x30 }
  - { offsetInCU: 0x26E74, offset: 0x38BAB, size: 0x8, addend: 0x0, symName: __ZNSt3__114__split_bufferINS_6threadERNS_9allocatorIS1_EEE17__destruct_at_endB7v160006EPS1_NS_17integral_constantIbLb0EEE, symObjAddr: 0xE6E0, symBinAddr: 0x100014E10, symSize: 0x80 }
  - { offsetInCU: 0x26EB5, offset: 0x38BEC, size: 0x8, addend: 0x0, symName: __ZNKSt3__114__split_bufferINS_6threadERNS_9allocatorIS1_EEE9__end_capB7v160006Ev, symObjAddr: 0xE760, symBinAddr: 0x100014E90, symSize: 0x20 }
  - { offsetInCU: 0x26EDB, offset: 0x38C12, size: 0x8, addend: 0x0, symName: __ZNKSt3__117__compressed_pairIPNS_6threadERNS_9allocatorIS1_EEE5firstB7v160006Ev, symObjAddr: 0xE780, symBinAddr: 0x100014EB0, symSize: 0x20 }
  - { offsetInCU: 0x26F01, offset: 0x38C38, size: 0x8, addend: 0x0, symName: __ZNSt3__112__hash_tableINS_17__hash_value_typeIi4BotsEENS_22__unordered_map_hasherIiS3_NS_4hashIiEENS_8equal_toIiEELb1EEENS_21__unordered_map_equalIiS3_S8_S6_Lb1EEENS_9allocatorIS3_EEE15__insert_uniqueB7v160006EONS_4pairIKiS2_EE, symObjAddr: 0xE7A0, symBinAddr: 0x100014ED0, symSize: 0x50 }
  - { offsetInCU: 0x26F36, offset: 0x38C6D, size: 0x8, addend: 0x0, symName: __ZNSt3__14pairINS_19__hash_map_iteratorINS_15__hash_iteratorIPNS_11__hash_nodeINS_17__hash_value_typeIi4BotsEEPvEEEEEEbEC1B7v160006ISA_bLS7_0EEEONS0_IT_T0_EE, symObjAddr: 0xE7F0, symBinAddr: 0x100014F20, symSize: 0x30 }
  - { offsetInCU: 0x26F86, offset: 0x38CBD, size: 0x8, addend: 0x0, symName: __ZNSt3__112__hash_tableINS_17__hash_value_typeIi4BotsEENS_22__unordered_map_hasherIiS3_NS_4hashIiEENS_8equal_toIiEELb1EEENS_21__unordered_map_equalIiS3_S8_S6_Lb1EEENS_9allocatorIS3_EEE25__emplace_unique_key_argsIiJNS_4pairIKiS2_EEEEENSG_INS_15__hash_iteratorIPNS_11__hash_nodeIS3_PvEEEEbEERKT_DpOT0_, symObjAddr: 0xE820, symBinAddr: 0x100014F50, symSize: 0x5B0 }
  - { offsetInCU: 0x2706C, offset: 0x38DA3, size: 0x8, addend: 0x0, symName: __ZNSt3__122__hash_key_value_typesINS_17__hash_value_typeIi4BotsEEE9__get_keyB7v160006ERKNS_4pairIKiS2_EE, symObjAddr: 0xEDD0, symBinAddr: 0x100015500, symSize: 0x10 }
  - { offsetInCU: 0x2708F, offset: 0x38DC6, size: 0x8, addend: 0x0, symName: __ZNSt3__112__hash_tableINS_17__hash_value_typeIi4BotsEENS_22__unordered_map_hasherIiS3_NS_4hashIiEENS_8equal_toIiEELb1EEENS_21__unordered_map_equalIiS3_S8_S6_Lb1EEENS_9allocatorIS3_EEE21__construct_node_hashINS_4pairIKiS2_EEJEEENS_10unique_ptrINS_11__hash_nodeIS3_PvEENS_22__hash_node_destructorINSC_ISM_EEEEEEmOT_DpOT0_, symObjAddr: 0xEDE0, symBinAddr: 0x100015510, symSize: 0x140 }
  - { offsetInCU: 0x27104, offset: 0x38E3B, size: 0x8, addend: 0x0, symName: __ZNSt3__112__hash_tableINS_17__hash_value_typeIi4BotsEENS_22__unordered_map_hasherIiS3_NS_4hashIiEENS_8equal_toIiEELb1EEENS_21__unordered_map_equalIiS3_S8_S6_Lb1EEENS_9allocatorIS3_EEE4sizeB7v160006Ev, symObjAddr: 0xEF20, symBinAddr: 0x100015650, symSize: 0x20 }
  - { offsetInCU: 0x2712A, offset: 0x38E61, size: 0x8, addend: 0x0, symName: __ZNSt3__112__hash_tableINS_17__hash_value_typeIi4BotsEENS_22__unordered_map_hasherIiS3_NS_4hashIiEENS_8equal_toIiEELb1EEENS_21__unordered_map_equalIiS3_S8_S6_Lb1EEENS_9allocatorIS3_EEE15max_load_factorB7v160006Ev, symObjAddr: 0xEF40, symBinAddr: 0x100015670, symSize: 0x20 }
  - { offsetInCU: 0x27150, offset: 0x38E87, size: 0x8, addend: 0x0, symName: __ZNSt3__112__hash_tableINS_17__hash_value_typeIi4BotsEENS_22__unordered_map_hasherIiS3_NS_4hashIiEENS_8equal_toIiEELb1EEENS_21__unordered_map_equalIiS3_S8_S6_Lb1EEENS_9allocatorIS3_EEE15__rehash_uniqueB7v160006Em, symObjAddr: 0xEF60, symBinAddr: 0x100015690, symSize: 0x30 }
  - { offsetInCU: 0x27184, offset: 0x38EBB, size: 0x8, addend: 0x0, symName: __Z4ceilB7v160006f, symObjAddr: 0xEFD0, symBinAddr: 0x100015700, symSize: 0x20 }
  - { offsetInCU: 0x271B3, offset: 0x38EEA, size: 0x8, addend: 0x0, symName: __ZNSt3__116__hash_node_baseIPNS_11__hash_nodeINS_17__hash_value_typeIi4BotsEEPvEEE5__ptrB7v160006Ev, symObjAddr: 0xF010, symBinAddr: 0x100015720, symSize: 0x20 }
  - { offsetInCU: 0x271D9, offset: 0x38F10, size: 0x8, addend: 0x0, symName: __ZNKSt3__110unique_ptrINS_11__hash_nodeINS_17__hash_value_typeIi4BotsEEPvEENS_22__hash_node_destructorINS_9allocatorIS6_EEEEEptB7v160006Ev, symObjAddr: 0xF030, symBinAddr: 0x100015740, symSize: 0x20 }
  - { offsetInCU: 0x271FF, offset: 0x38F36, size: 0x8, addend: 0x0, symName: __ZNKSt3__110unique_ptrINS_11__hash_nodeINS_17__hash_value_typeIi4BotsEEPvEENS_22__hash_node_destructorINS_9allocatorIS6_EEEEE3getB7v160006Ev, symObjAddr: 0xF050, symBinAddr: 0x100015760, symSize: 0x20 }
  - { offsetInCU: 0x27225, offset: 0x38F5C, size: 0x8, addend: 0x0, symName: __ZNSt3__110unique_ptrINS_11__hash_nodeINS_17__hash_value_typeIi4BotsEEPvEENS_22__hash_node_destructorINS_9allocatorIS6_EEEEE7releaseB7v160006Ev, symObjAddr: 0xF070, symBinAddr: 0x100015780, symSize: 0x40 }
  - { offsetInCU: 0x2725B, offset: 0x38F92, size: 0x8, addend: 0x0, symName: __ZNSt3__110unique_ptrINS_11__hash_nodeINS_17__hash_value_typeIi4BotsEEPvEENS_22__hash_node_destructorINS_9allocatorIS6_EEEEED1B7v160006Ev, symObjAddr: 0xF0B0, symBinAddr: 0x1000157C0, symSize: 0x20 }
  - { offsetInCU: 0x27289, offset: 0x38FC0, size: 0x8, addend: 0x0, symName: __ZNSt3__14pairINS_15__hash_iteratorIPNS_11__hash_nodeINS_17__hash_value_typeIi4BotsEEPvEEEEbEC1B7v160006IS9_RbLS6_0EEEOT_OT0_, symObjAddr: 0xF0D0, symBinAddr: 0x1000157E0, symSize: 0x30 }
  - { offsetInCU: 0x272E6, offset: 0x3901D, size: 0x8, addend: 0x0, symName: __ZNSt3__116allocator_traitsINS_9allocatorINS_11__hash_nodeINS_17__hash_value_typeIi4BotsEEPvEEEEE8allocateB7v160006ERS8_m, symObjAddr: 0xF120, symBinAddr: 0x100015810, symSize: 0x30 }
  - { offsetInCU: 0x27319, offset: 0x39050, size: 0x8, addend: 0x0, symName: __ZNSt3__122__hash_node_destructorINS_9allocatorINS_11__hash_nodeINS_17__hash_value_typeIi4BotsEEPvEEEEEC1B7v160006ERS8_b, symObjAddr: 0xF150, symBinAddr: 0x100015840, symSize: 0x40 }
  - { offsetInCU: 0x27365, offset: 0x3909C, size: 0x8, addend: 0x0, symName: __ZNSt3__110unique_ptrINS_11__hash_nodeINS_17__hash_value_typeIi4BotsEEPvEENS_22__hash_node_destructorINS_9allocatorIS6_EEEEEC1B7v160006ILb1EvEEPS6_NS_16__dependent_typeINS_27__unique_ptr_deleter_sfinaeISA_EEXT_EE20__good_rval_ref_typeE, symObjAddr: 0xF190, symBinAddr: 0x100015880, symSize: 0x30 }
  - { offsetInCU: 0x273B5, offset: 0x390EC, size: 0x8, addend: 0x0, symName: __ZNSt3__116allocator_traitsINS_9allocatorINS_11__hash_nodeINS_17__hash_value_typeIi4BotsEEPvEEEEE9constructB7v160006INS_4pairIKiS4_EEJSD_EvEEvRS8_PT_DpOT0_, symObjAddr: 0xF1C0, symBinAddr: 0x1000158B0, symSize: 0x30 }
  - { offsetInCU: 0x2740C, offset: 0x39143, size: 0x8, addend: 0x0, symName: __ZNSt3__110unique_ptrINS_11__hash_nodeINS_17__hash_value_typeIi4BotsEEPvEENS_22__hash_node_destructorINS_9allocatorIS6_EEEEE11get_deleterB7v160006Ev, symObjAddr: 0xF210, symBinAddr: 0x1000158E0, symSize: 0x20 }
  - { offsetInCU: 0x27432, offset: 0x39169, size: 0x8, addend: 0x0, symName: __ZNSt3__19allocatorINS_11__hash_nodeINS_17__hash_value_typeIi4BotsEEPvEEE8allocateB7v160006Em, symObjAddr: 0xF260, symBinAddr: 0x100015900, symSize: 0x50 }
  - { offsetInCU: 0x27470, offset: 0x391A7, size: 0x8, addend: 0x0, symName: __ZNSt3__116allocator_traitsINS_9allocatorINS_11__hash_nodeINS_17__hash_value_typeIi4BotsEEPvEEEEE8max_sizeB7v160006IS8_vEEmRKS8_, symObjAddr: 0xF2B0, symBinAddr: 0x100015950, symSize: 0x20 }
  - { offsetInCU: 0x2749E, offset: 0x391D5, size: 0x8, addend: 0x0, symName: __ZNKSt3__19allocatorINS_11__hash_nodeINS_17__hash_value_typeIi4BotsEEPvEEE8max_sizeB7v160006Ev, symObjAddr: 0xF2D0, symBinAddr: 0x100015970, symSize: 0x20 }
  - { offsetInCU: 0x274C4, offset: 0x391FB, size: 0x8, addend: 0x0, symName: __ZNSt3__122__hash_node_destructorINS_9allocatorINS_11__hash_nodeINS_17__hash_value_typeIi4BotsEEPvEEEEEC2B7v160006ERS8_b, symObjAddr: 0xF2F0, symBinAddr: 0x100015990, symSize: 0x30 }
  - { offsetInCU: 0x2750B, offset: 0x39242, size: 0x8, addend: 0x0, symName: __ZNSt3__110unique_ptrINS_11__hash_nodeINS_17__hash_value_typeIi4BotsEEPvEENS_22__hash_node_destructorINS_9allocatorIS6_EEEEEC2B7v160006ILb1EvEEPS6_NS_16__dependent_typeINS_27__unique_ptr_deleter_sfinaeISA_EEXT_EE20__good_rval_ref_typeE, symObjAddr: 0xF320, symBinAddr: 0x1000159C0, symSize: 0x40 }
  - { offsetInCU: 0x2755B, offset: 0x39292, size: 0x8, addend: 0x0, symName: __ZNSt3__117__compressed_pairIPNS_11__hash_nodeINS_17__hash_value_typeIi4BotsEEPvEENS_22__hash_node_destructorINS_9allocatorIS6_EEEEEC1B7v160006IRS7_SB_EEOT_OT0_, symObjAddr: 0xF360, symBinAddr: 0x100015A00, symSize: 0x30 }
  - { offsetInCU: 0x275B2, offset: 0x392E9, size: 0x8, addend: 0x0, symName: __ZNSt3__117__compressed_pairIPNS_11__hash_nodeINS_17__hash_value_typeIi4BotsEEPvEENS_22__hash_node_destructorINS_9allocatorIS6_EEEEEC2B7v160006IRS7_SB_EEOT_OT0_, symObjAddr: 0xF390, symBinAddr: 0x100015A30, symSize: 0x40 }
  - { offsetInCU: 0x27609, offset: 0x39340, size: 0x8, addend: 0x0, symName: __ZNSt3__122__compressed_pair_elemIPNS_11__hash_nodeINS_17__hash_value_typeIi4BotsEEPvEELi0ELb0EEC2B7v160006IRS7_vEEOT_, symObjAddr: 0xF3D0, symBinAddr: 0x100015A70, symSize: 0x20 }
  - { offsetInCU: 0x2764A, offset: 0x39381, size: 0x8, addend: 0x0, symName: __ZNSt3__122__compressed_pair_elemINS_22__hash_node_destructorINS_9allocatorINS_11__hash_nodeINS_17__hash_value_typeIi4BotsEEPvEEEEEELi1ELb0EEC2B7v160006ISA_vEEOT_, symObjAddr: 0xF3F0, symBinAddr: 0x100015A90, symSize: 0x30 }
  - { offsetInCU: 0x2768B, offset: 0x393C2, size: 0x8, addend: 0x0, symName: __ZNSt3__19allocatorINS_11__hash_nodeINS_17__hash_value_typeIi4BotsEEPvEEE9constructB7v160006INS_4pairIKiS3_EEJSB_EEEvPT_DpOT0_, symObjAddr: 0xF420, symBinAddr: 0x100015AC0, symSize: 0x30 }
  - { offsetInCU: 0x276E1, offset: 0x39418, size: 0x8, addend: 0x0, symName: __ZNSt3__117__compressed_pairIPNS_11__hash_nodeINS_17__hash_value_typeIi4BotsEEPvEENS_22__hash_node_destructorINS_9allocatorIS6_EEEEE6secondB7v160006Ev, symObjAddr: 0xF450, symBinAddr: 0x100015AF0, symSize: 0x20 }
  - { offsetInCU: 0x27707, offset: 0x3943E, size: 0x8, addend: 0x0, symName: __ZNSt3__122__compressed_pair_elemINS_22__hash_node_destructorINS_9allocatorINS_11__hash_nodeINS_17__hash_value_typeIi4BotsEEPvEEEEEELi1ELb0EE5__getB7v160006Ev, symObjAddr: 0xF470, symBinAddr: 0x100015B10, symSize: 0x10 }
  - { offsetInCU: 0x2772D, offset: 0x39464, size: 0x8, addend: 0x0, symName: __ZNSt3__117__compressed_pairImNS_22__unordered_map_hasherIiNS_17__hash_value_typeIi4BotsEENS_4hashIiEENS_8equal_toIiEELb1EEEE5firstB7v160006Ev, symObjAddr: 0xF480, symBinAddr: 0x100015B20, symSize: 0x20 }
  - { offsetInCU: 0x27753, offset: 0x3948A, size: 0x8, addend: 0x0, symName: __ZNSt3__117__compressed_pairIfNS_21__unordered_map_equalIiNS_17__hash_value_typeIi4BotsEENS_8equal_toIiEENS_4hashIiEELb1EEEE5firstB7v160006Ev, symObjAddr: 0xF4B0, symBinAddr: 0x100015B40, symSize: 0x20 }
  - { offsetInCU: 0x27779, offset: 0x394B0, size: 0x8, addend: 0x0, symName: __ZNSt3__122__compressed_pair_elemIfLi0ELb0EE5__getB7v160006Ev, symObjAddr: 0xF4D0, symBinAddr: 0x100015B60, symSize: 0x10 }
  - { offsetInCU: 0x2779F, offset: 0x394D6, size: 0x8, addend: 0x0, symName: __ZNSt3__112__hash_tableINS_17__hash_value_typeIi4BotsEENS_22__unordered_map_hasherIiS3_NS_4hashIiEENS_8equal_toIiEELb1EEENS_21__unordered_map_equalIiS3_S8_S6_Lb1EEENS_9allocatorIS3_EEE8__rehashILb1EEEvm, symObjAddr: 0xF4E0, symBinAddr: 0x100015B70, symSize: 0x230 }
  - { offsetInCU: 0x277F0, offset: 0x39527, size: 0x8, addend: 0x0, symName: __ZNSt3__112__hash_tableINS_17__hash_value_typeIi4BotsEENS_22__unordered_map_hasherIiS3_NS_4hashIiEENS_8equal_toIiEELb1EEENS_21__unordered_map_equalIiS3_S8_S6_Lb1EEENS_9allocatorIS3_EEE11__do_rehashILb1EEEvm, symObjAddr: 0xF710, symBinAddr: 0x100015DA0, symSize: 0x260 }
  - { offsetInCU: 0x278DE, offset: 0x39615, size: 0x8, addend: 0x0, symName: __ZNSt3__110unique_ptrIA_PNS_16__hash_node_baseIPNS_11__hash_nodeINS_17__hash_value_typeIi4BotsEEPvEEEENS_25__bucket_list_deallocatorINS_9allocatorISA_EEEEE11get_deleterB7v160006Ev, symObjAddr: 0xF9E0, symBinAddr: 0x100016070, symSize: 0x20 }
  - { offsetInCU: 0x27904, offset: 0x3963B, size: 0x8, addend: 0x0, symName: __ZNSt3__110unique_ptrIA_PNS_16__hash_node_baseIPNS_11__hash_nodeINS_17__hash_value_typeIi4BotsEEPvEEEENS_25__bucket_list_deallocatorINS_9allocatorISA_EEEEE5resetB7v160006IPSA_EENS_9enable_ifIXsr28_CheckArrayPointerConversionIT_EE5valueEvE4typeESK_, symObjAddr: 0xFA20, symBinAddr: 0x100016090, symSize: 0x70 }
  - { offsetInCU: 0x27952, offset: 0x39689, size: 0x8, addend: 0x0, symName: __ZNSt3__116allocator_traitsINS_9allocatorIPNS_16__hash_node_baseIPNS_11__hash_nodeINS_17__hash_value_typeIi4BotsEEPvEEEEEEE8allocateB7v160006ERSC_m, symObjAddr: 0xFA90, symBinAddr: 0x100016100, symSize: 0x30 }
  - { offsetInCU: 0x27985, offset: 0x396BC, size: 0x8, addend: 0x0, symName: __ZNSt3__19allocatorIPNS_16__hash_node_baseIPNS_11__hash_nodeINS_17__hash_value_typeIi4BotsEEPvEEEEE8allocateB7v160006Em, symObjAddr: 0xFC30, symBinAddr: 0x100016130, symSize: 0x50 }
  - { offsetInCU: 0x279C3, offset: 0x396FA, size: 0x8, addend: 0x0, symName: __ZNSt3__116allocator_traitsINS_9allocatorIPNS_16__hash_node_baseIPNS_11__hash_nodeINS_17__hash_value_typeIi4BotsEEPvEEEEEEE8max_sizeB7v160006ISC_vEEmRKSC_, symObjAddr: 0xFC80, symBinAddr: 0x100016180, symSize: 0x20 }
  - { offsetInCU: 0x279F1, offset: 0x39728, size: 0x8, addend: 0x0, symName: __ZNKSt3__19allocatorIPNS_16__hash_node_baseIPNS_11__hash_nodeINS_17__hash_value_typeIi4BotsEEPvEEEEE8max_sizeB7v160006Ev, symObjAddr: 0xFCA0, symBinAddr: 0x1000161A0, symSize: 0x20 }
  - { offsetInCU: 0x27A17, offset: 0x3974E, size: 0x8, addend: 0x0, symName: __ZNKSt3__117__compressed_pairIPNS_11__hash_nodeINS_17__hash_value_typeIi4BotsEEPvEENS_22__hash_node_destructorINS_9allocatorIS6_EEEEE5firstB7v160006Ev, symObjAddr: 0xFD10, symBinAddr: 0x1000161E0, symSize: 0x20 }
  - { offsetInCU: 0x27A3D, offset: 0x39774, size: 0x8, addend: 0x0, symName: __ZNKSt3__122__compressed_pair_elemIPNS_11__hash_nodeINS_17__hash_value_typeIi4BotsEEPvEELi0ELb0EE5__getB7v160006Ev, symObjAddr: 0xFD30, symBinAddr: 0x100016200, symSize: 0x10 }
  - { offsetInCU: 0x27A63, offset: 0x3979A, size: 0x8, addend: 0x0, symName: __ZNSt3__117__compressed_pairIPNS_11__hash_nodeINS_17__hash_value_typeIi4BotsEEPvEENS_22__hash_node_destructorINS_9allocatorIS6_EEEEE5firstB7v160006Ev, symObjAddr: 0xFD40, symBinAddr: 0x100016210, symSize: 0x20 }
  - { offsetInCU: 0x27A89, offset: 0x397C0, size: 0x8, addend: 0x0, symName: __ZNSt3__122__compressed_pair_elemIPNS_11__hash_nodeINS_17__hash_value_typeIi4BotsEEPvEELi0ELb0EE5__getB7v160006Ev, symObjAddr: 0xFD60, symBinAddr: 0x100016230, symSize: 0x10 }
  - { offsetInCU: 0x27AAF, offset: 0x397E6, size: 0x8, addend: 0x0, symName: __ZNSt3__110unique_ptrINS_11__hash_nodeINS_17__hash_value_typeIi4BotsEEPvEENS_22__hash_node_destructorINS_9allocatorIS6_EEEEED2B7v160006Ev, symObjAddr: 0xFD70, symBinAddr: 0x100016240, symSize: 0x20 }
  - { offsetInCU: 0x27AD8, offset: 0x3980F, size: 0x8, addend: 0x0, symName: __ZNSt3__110unique_ptrINS_11__hash_nodeINS_17__hash_value_typeIi4BotsEEPvEENS_22__hash_node_destructorINS_9allocatorIS6_EEEEE5resetB7v160006EPS6_, symObjAddr: 0xFD90, symBinAddr: 0x100016260, symSize: 0x70 }
  - { offsetInCU: 0x27B1D, offset: 0x39854, size: 0x8, addend: 0x0, symName: __ZNSt3__122__hash_node_destructorINS_9allocatorINS_11__hash_nodeINS_17__hash_value_typeIi4BotsEEPvEEEEEclB7v160006EPS7_, symObjAddr: 0xFE00, symBinAddr: 0x1000162D0, symSize: 0x80 }
  - { offsetInCU: 0x27B52, offset: 0x39889, size: 0x8, addend: 0x0, symName: __ZNSt3__14pairINS_15__hash_iteratorIPNS_11__hash_nodeINS_17__hash_value_typeIi4BotsEEPvEEEEbEC2B7v160006IS9_RbLS6_0EEEOT_OT0_, symObjAddr: 0xFF10, symBinAddr: 0x100016350, symSize: 0x30 }
  - { offsetInCU: 0x27BAF, offset: 0x398E6, size: 0x8, addend: 0x0, symName: __ZNSt3__14pairINS_19__hash_map_iteratorINS_15__hash_iteratorIPNS_11__hash_nodeINS_17__hash_value_typeIi4BotsEEPvEEEEEEbEC2B7v160006ISA_bLS7_0EEEONS0_IT_T0_EE, symObjAddr: 0xFF40, symBinAddr: 0x100016380, symSize: 0x50 }
  - { offsetInCU: 0x27BFF, offset: 0x39936, size: 0x8, addend: 0x0, symName: __ZNSt3__16vectorINS_6threadENS_9allocatorIS1_EEE11__make_iterB7v160006EPS1_, symObjAddr: 0xFF90, symBinAddr: 0x1000163D0, symSize: 0x30 }
  - { offsetInCU: 0x27C34, offset: 0x3996B, size: 0x8, addend: 0x0, symName: __ZNSt3__111__wrap_iterIPNS_6threadEEC1B7v160006EPKvS2_, symObjAddr: 0xFFC0, symBinAddr: 0x100016400, symSize: 0x30 }
  - { offsetInCU: 0x27C79, offset: 0x399B0, size: 0x8, addend: 0x0, symName: __ZNSt3__111__wrap_iterIPNS_6threadEEC2B7v160006EPKvS2_, symObjAddr: 0xFFF0, symBinAddr: 0x100016430, symSize: 0x20 }
  - { offsetInCU: 0x27CBE, offset: 0x399F5, size: 0x8, addend: 0x0, symName: __ZNSt3__19basic_iosIcNS_11char_traitsIcEEEC2B7v160006Ev, symObjAddr: 0x10010, symBinAddr: 0x100016450, symSize: 0x40 }
  - { offsetInCU: 0x27CE7, offset: 0x39A1E, size: 0x8, addend: 0x0, symName: __ZNSt3__113basic_ostreamIcNS_11char_traitsIcEEEC2B7v160006EPNS_15basic_streambufIcS2_EE, symObjAddr: 0x10050, symBinAddr: 0x100016490, symSize: 0x50 }
  - { offsetInCU: 0x27D2B, offset: 0x39A62, size: 0x8, addend: 0x0, symName: __ZNSt3__19basic_iosIcNS_11char_traitsIcEEE8setstateB7v160006Ej, symObjAddr: 0x100A0, symBinAddr: 0x1000164E0, symSize: 0x30 }
  - { offsetInCU: 0x27D60, offset: 0x39A97, size: 0x8, addend: 0x0, symName: __ZNSt3__18ios_baseC2B7v160006Ev, symObjAddr: 0x100D0, symBinAddr: 0x100016510, symSize: 0x20 }
  - { offsetInCU: 0x27D89, offset: 0x39AC0, size: 0x8, addend: 0x0, symName: __ZNSt3__19basic_iosIcNS_11char_traitsIcEEE4initB7v160006EPNS_15basic_streambufIcS2_EE, symObjAddr: 0x100F0, symBinAddr: 0x100016530, symSize: 0x50 }
  - { offsetInCU: 0x27DC0, offset: 0x39AF7, size: 0x8, addend: 0x0, symName: __ZNSt3__111char_traitsIcE3eofEv, symObjAddr: 0x10140, symBinAddr: 0x100016580, symSize: 0x10 }
  - { offsetInCU: 0x27DD4, offset: 0x39B0B, size: 0x8, addend: 0x0, symName: __ZNSt3__18ios_base8setstateB7v160006Ej, symObjAddr: 0x10150, symBinAddr: 0x100016590, symSize: 0x30 }
  - { offsetInCU: 0x27E0B, offset: 0x39B42, size: 0x8, addend: 0x0, symName: __ZNKSt3__113basic_filebufIcNS_11char_traitsIcEEE7is_openEv, symObjAddr: 0x10180, symBinAddr: 0x1000165C0, symSize: 0x20 }
  - { offsetInCU: 0x27E51, offset: 0x39B88, size: 0x8, addend: 0x0, symName: __ZNKSt3__113basic_ostreamIcNS_11char_traitsIcEEE6sentrycvbB7v160006Ev, symObjAddr: 0x10390, symBinAddr: 0x1000167D0, symSize: 0x20 }
  - { offsetInCU: 0x27E77, offset: 0x39BAE, size: 0x8, addend: 0x0, symName: __ZNSt3__119ostreambuf_iteratorIcNS_11char_traitsIcEEEC1B7v160006ERNS_13basic_ostreamIcS2_EE, symObjAddr: 0x105D0, symBinAddr: 0x100016A10, symSize: 0x30 }
  - { offsetInCU: 0x27EAE, offset: 0x39BE5, size: 0x8, addend: 0x0, symName: __ZNKSt3__18ios_base5flagsB7v160006Ev, symObjAddr: 0x10600, symBinAddr: 0x100016A40, symSize: 0x20 }
  - { offsetInCU: 0x27ED6, offset: 0x39C0D, size: 0x8, addend: 0x0, symName: __ZNKSt3__19basic_iosIcNS_11char_traitsIcEEE4fillB7v160006Ev, symObjAddr: 0x10620, symBinAddr: 0x100016A60, symSize: 0x70 }
  - { offsetInCU: 0x27EFE, offset: 0x39C35, size: 0x8, addend: 0x0, symName: __ZNKSt3__119ostreambuf_iteratorIcNS_11char_traitsIcEEE6failedB7v160006Ev, symObjAddr: 0x10690, symBinAddr: 0x100016AD0, symSize: 0x20 }
  - { offsetInCU: 0x27F24, offset: 0x39C5B, size: 0x8, addend: 0x0, symName: __ZNKSt3__18ios_base5widthB7v160006Ev, symObjAddr: 0x106B0, symBinAddr: 0x100016AF0, symSize: 0x20 }
  - { offsetInCU: 0x27F4C, offset: 0x39C83, size: 0x8, addend: 0x0, symName: __ZNSt3__115basic_streambufIcNS_11char_traitsIcEEE5sputnB7v160006EPKcl, symObjAddr: 0x106D0, symBinAddr: 0x100016B10, symSize: 0x30 }
  - { offsetInCU: 0x27F8E, offset: 0x39CC5, size: 0x8, addend: 0x0, symName: __ZNSt3__112basic_stringIcNS_11char_traitsIcEENS_9allocatorIcEEEC1B7v160006Emc, symObjAddr: 0x10700, symBinAddr: 0x100016B40, symSize: 0x30 }
  - { offsetInCU: 0x27FD5, offset: 0x39D0C, size: 0x8, addend: 0x0, symName: __ZNKSt3__112basic_stringIcNS_11char_traitsIcEENS_9allocatorIcEEE4dataB7v160006Ev, symObjAddr: 0x10730, symBinAddr: 0x100016B70, symSize: 0x30 }
  - { offsetInCU: 0x27FFB, offset: 0x39D32, size: 0x8, addend: 0x0, symName: __ZNSt3__18ios_base5widthB7v160006El, symObjAddr: 0x10760, symBinAddr: 0x100016BA0, symSize: 0x30 }
  - { offsetInCU: 0x28042, offset: 0x39D79, size: 0x8, addend: 0x0, symName: __ZNSt3__112basic_stringIcNS_11char_traitsIcEENS_9allocatorIcEEEC2B7v160006Emc, symObjAddr: 0x10790, symBinAddr: 0x100016BD0, symSize: 0x50 }
  - { offsetInCU: 0x28089, offset: 0x39DC0, size: 0x8, addend: 0x0, symName: __ZNKSt3__112basic_stringIcNS_11char_traitsIcEENS_9allocatorIcEEE13__get_pointerB7v160006Ev, symObjAddr: 0x107F0, symBinAddr: 0x100016C30, symSize: 0x50 }
  - { offsetInCU: 0x280AF, offset: 0x39DE6, size: 0x8, addend: 0x0, symName: __ZNKSt3__112basic_stringIcNS_11char_traitsIcEENS_9allocatorIcEEE9__is_longB7v160006Ev, symObjAddr: 0x10840, symBinAddr: 0x100016C80, symSize: 0x30 }
  - { offsetInCU: 0x280D5, offset: 0x39E0C, size: 0x8, addend: 0x0, symName: __ZNKSt3__112basic_stringIcNS_11char_traitsIcEENS_9allocatorIcEEE18__get_long_pointerB7v160006Ev, symObjAddr: 0x10870, symBinAddr: 0x100016CB0, symSize: 0x20 }
  - { offsetInCU: 0x280FB, offset: 0x39E32, size: 0x8, addend: 0x0, symName: __ZNKSt3__112basic_stringIcNS_11char_traitsIcEENS_9allocatorIcEEE19__get_short_pointerB7v160006Ev, symObjAddr: 0x10890, symBinAddr: 0x100016CD0, symSize: 0x30 }
  - { offsetInCU: 0x28121, offset: 0x39E58, size: 0x8, addend: 0x0, symName: __ZNKSt3__117__compressed_pairINS_12basic_stringIcNS_11char_traitsIcEENS_9allocatorIcEEE5__repES5_E5firstB7v160006Ev, symObjAddr: 0x108C0, symBinAddr: 0x100016D00, symSize: 0x20 }
  - { offsetInCU: 0x28147, offset: 0x39E7E, size: 0x8, addend: 0x0, symName: __ZNKSt3__122__compressed_pair_elemINS_12basic_stringIcNS_11char_traitsIcEENS_9allocatorIcEEE5__repELi0ELb0EE5__getB7v160006Ev, symObjAddr: 0x108E0, symBinAddr: 0x100016D20, symSize: 0x10 }
  - { offsetInCU: 0x2816D, offset: 0x39EA4, size: 0x8, addend: 0x0, symName: __ZNSt3__114pointer_traitsIPKcE10pointer_toB7v160006ERS1_, symObjAddr: 0x108F0, symBinAddr: 0x100016D30, symSize: 0x10 }
  - { offsetInCU: 0x28190, offset: 0x39EC7, size: 0x8, addend: 0x0, symName: __ZNSt3__119ostreambuf_iteratorIcNS_11char_traitsIcEEEC2B7v160006ERNS_13basic_ostreamIcS2_EE, symObjAddr: 0x10900, symBinAddr: 0x100016D40, symSize: 0x50 }
  - { offsetInCU: 0x281C7, offset: 0x39EFE, size: 0x8, addend: 0x0, symName: __ZNKSt3__19basic_iosIcNS_11char_traitsIcEEE5rdbufB7v160006Ev, symObjAddr: 0x10950, symBinAddr: 0x100016D90, symSize: 0x20 }
  - { offsetInCU: 0x281EF, offset: 0x39F26, size: 0x8, addend: 0x0, symName: __ZNKSt3__18ios_base5rdbufB7v160006Ev, symObjAddr: 0x10970, symBinAddr: 0x100016DB0, symSize: 0x20 }
  - { offsetInCU: 0x28215, offset: 0x39F4C, size: 0x8, addend: 0x0, symName: __ZNSt3__111char_traitsIcE11eq_int_typeEii, symObjAddr: 0x10990, symBinAddr: 0x100016DD0, symSize: 0x20 }
  - { offsetInCU: 0x28246, offset: 0x39F7D, size: 0x8, addend: 0x0, symName: __ZNKSt3__19basic_iosIcNS_11char_traitsIcEEE5widenB7v160006Ec, symObjAddr: 0x109B0, symBinAddr: 0x100016DF0, symSize: 0x80 }
  - { offsetInCU: 0x282AF, offset: 0x39FE6, size: 0x8, addend: 0x0, symName: __ZNKSt3__15ctypeIcE5widenB7v160006Ec, symObjAddr: 0x10A60, symBinAddr: 0x100016EA0, symSize: 0x30 }
  - { offsetInCU: 0x282E4, offset: 0x3A01B, size: 0x8, addend: 0x0, symName: __ZNSt3__16vectorI13ExecutedTradeNS_9allocatorIS1_EEE11__make_iterB7v160006EPS1_, symObjAddr: 0x10A90, symBinAddr: 0x100016ED0, symSize: 0x30 }
  - { offsetInCU: 0x28319, offset: 0x3A050, size: 0x8, addend: 0x0, symName: __ZNSt3__111__wrap_iterIP13ExecutedTradeEC1B7v160006EPKvS2_, symObjAddr: 0x10AC0, symBinAddr: 0x100016F00, symSize: 0x30 }
  - { offsetInCU: 0x2835E, offset: 0x3A095, size: 0x8, addend: 0x0, symName: __ZNSt3__111__wrap_iterIP13ExecutedTradeEC2B7v160006EPKvS2_, symObjAddr: 0x10AF0, symBinAddr: 0x100016F30, symSize: 0x20 }
  - { offsetInCU: 0x283A3, offset: 0x3A0DA, size: 0x8, addend: 0x0, symName: __ZNKSt3__15dequeINS_6chrono10time_pointINS1_12steady_clockENS1_8durationIxNS_5ratioILl1ELl1000000000EEEEEEENS_9allocatorIS8_EEE5emptyB7v160006Ev, symObjAddr: 0x10B10, symBinAddr: 0x100016F50, symSize: 0x30 }
  - { offsetInCU: 0x283C9, offset: 0x3A100, size: 0x8, addend: 0x0, symName: __ZNSt3__15dequeINS_6chrono10time_pointINS1_12steady_clockENS1_8durationIxNS_5ratioILl1ELl1000000000EEEEEEENS_9allocatorIS8_EEE5frontEv, symObjAddr: 0x10BA0, symBinAddr: 0x100016F80, symSize: 0x50 }
  - { offsetInCU: 0x283F1, offset: 0x3A128, size: 0x8, addend: 0x0, symName: __ZNSt3__15dequeINS_6chrono10time_pointINS1_12steady_clockENS1_8durationIxNS_5ratioILl1ELl1000000000EEEEEEENS_9allocatorIS8_EEE9pop_frontEv, symObjAddr: 0x10C10, symBinAddr: 0x100016FD0, symSize: 0xA0 }
  - { offsetInCU: 0x28429, offset: 0x3A160, size: 0x8, addend: 0x0, symName: __ZNSt3__15dequeINS_6chrono10time_pointINS1_12steady_clockENS1_8durationIxNS_5ratioILl1ELl1000000000EEEEEEENS_9allocatorIS8_EEE26__maybe_remove_front_spareB7v160006Eb, symObjAddr: 0x10D30, symBinAddr: 0x100017080, symSize: 0xB0 }
  - { offsetInCU: 0x2845E, offset: 0x3A195, size: 0x8, addend: 0x0, symName: __ZNKSt3__15dequeINS_6chrono10time_pointINS1_12steady_clockENS1_8durationIxNS_5ratioILl1ELl1000000000EEEEEEENS_9allocatorIS8_EEE20__front_spare_blocksB7v160006Ev, symObjAddr: 0x10E40, symBinAddr: 0x100017130, symSize: 0x20 }
  - { offsetInCU: 0x28484, offset: 0x3A1BB, size: 0x8, addend: 0x0, symName: __ZNKSt3__15dequeINS_6chrono10time_pointINS1_12steady_clockENS1_8durationIxNS_5ratioILl1ELl1000000000EEEEEEENS_9allocatorIS8_EEE13__front_spareB7v160006Ev, symObjAddr: 0x10EE0, symBinAddr: 0x100017150, symSize: 0x20 }
  - { offsetInCU: 0x26, offset: 0x3A6AA, size: 0x8, addend: 0x0, symName: __ZN5OrderC2ERK9OrderTypeRK9OrderModedi, symObjAddr: 0x0, symBinAddr: 0x100017170, symSize: 0x60 }
  - { offsetInCU: 0x28D5, offset: 0x3CF59, size: 0x8, addend: 0x0, symName: __ZN5OrderC2ERK9OrderTypeRK9OrderModedi, symObjAddr: 0x0, symBinAddr: 0x100017170, symSize: 0x60 }
  - { offsetInCU: 0x2939, offset: 0x3CFBD, size: 0x8, addend: 0x0, symName: __ZN5OrderC1ERK9OrderTypeRK9OrderModedi, symObjAddr: 0x60, symBinAddr: 0x1000171D0, symSize: 0x40 }
  - { offsetInCU: 0x299D, offset: 0x3D021, size: 0x8, addend: 0x0, symName: __ZNK5Order8getPriceEv, symObjAddr: 0xA0, symBinAddr: 0x100017210, symSize: 0x20 }
  - { offsetInCU: 0x29C5, offset: 0x3D049, size: 0x8, addend: 0x0, symName: __ZNK5Order11getQuantityEv, symObjAddr: 0xC0, symBinAddr: 0x100017230, symSize: 0x20 }
  - { offsetInCU: 0x29ED, offset: 0x3D071, size: 0x8, addend: 0x0, symName: __ZNK5Order5getIdEv, symObjAddr: 0xE0, symBinAddr: 0x100017250, symSize: 0x20 }
  - { offsetInCU: 0x2A15, offset: 0x3D099, size: 0x8, addend: 0x0, symName: __ZNK5Order12getOrderTypeEv, symObjAddr: 0x100, symBinAddr: 0x100017270, symSize: 0x10 }
  - { offsetInCU: 0x2A3D, offset: 0x3D0C1, size: 0x8, addend: 0x0, symName: __ZNK5Order12getOrderModeEv, symObjAddr: 0x110, symBinAddr: 0x100017280, symSize: 0x20 }
  - { offsetInCU: 0x2A65, offset: 0x3D0E9, size: 0x8, addend: 0x0, symName: __ZNK5Order7getTimeEv, symObjAddr: 0x130, symBinAddr: 0x1000172A0, symSize: 0x1A }
  - { offsetInCU: 0x5E, offset: 0x3D179, size: 0x8, addend: 0x0, symName: __ZNSt3__117__cxx_atomic_loadB7v160006IbEET_PKNS_22__cxx_atomic_base_implIS1_EENS_12memory_orderE, symObjAddr: 0xAA0, symBinAddr: 0x100017CB0, symSize: 0x70 }
  - { offsetInCU: 0x814, offset: 0x3D92F, size: 0x8, addend: 0x0, symName: __ZNSt3__16chronogtB7v160006IdNS_5ratioILl1ELl1EEEdS3_EEbRKNS0_8durationIT_T0_EERKNS4_IT1_T2_EE, symObjAddr: 0xB10, symBinAddr: 0x100017D20, symSize: 0x30 }
  - { offsetInCU: 0x875, offset: 0x3D990, size: 0x8, addend: 0x0, symName: __ZNSt3__16chronoltB7v160006IdNS_5ratioILl1ELl1EEEeS3_EEbRKNS0_8durationIT_T0_EERKNS4_IT1_T2_EE, symObjAddr: 0xB80, symBinAddr: 0x100017D90, symSize: 0x30 }
  - { offsetInCU: 0x8D6, offset: 0x3D9F1, size: 0x8, addend: 0x0, symName: __ZNSt3__16chrono13duration_castB7v160006INS0_8durationIxNS_5ratioILl1ELl1000000000EEEEEdNS3_ILl1ELl1EEEEENS_9enable_ifIXsr13__is_durationIT_EE5valueES8_E4typeERKNS2_IT0_T1_EE, symObjAddr: 0xBB0, symBinAddr: 0x100017DC0, symSize: 0x30 }
  - { offsetInCU: 0x91D, offset: 0x3DA38, size: 0x8, addend: 0x0, symName: __ZNSt3__16chronoltB7v160006IxNS_5ratioILl1ELl1000000000EEEdNS2_ILl1ELl1EEEEEbRKNS0_8durationIT_T0_EERKNS5_IT1_T2_EE, symObjAddr: 0xBE0, symBinAddr: 0x100017DF0, symSize: 0x30 }
  - { offsetInCU: 0x97E, offset: 0x3DA99, size: 0x8, addend: 0x0, symName: __ZNSt3__16chronoltB7v160006IdNS_5ratioILl1ELl1EEEdS3_EEbRKNS0_8durationIT_T0_EERKNS4_IT1_T2_EE, symObjAddr: 0xC70, symBinAddr: 0x100017E20, symSize: 0x30 }
  - { offsetInCU: 0xA5C, offset: 0x3DB77, size: 0x8, addend: 0x0, symName: __ZNSt3__16chrono13duration_castB7v160006INS0_8durationIeNS_5ratioILl1ELl1EEEEEdS4_EENS_9enable_ifIXsr13__is_durationIT_EE5valueES7_E4typeERKNS2_IT0_T1_EE, symObjAddr: 0xE10, symBinAddr: 0x100017FA0, symSize: 0x30 }
  - { offsetInCU: 0xAEE, offset: 0x3DC09, size: 0x8, addend: 0x0, symName: __ZNSt3__16chrono13duration_castB7v160006INS0_8durationIdNS_5ratioILl1ELl1000000000EEEEExS4_EENS_9enable_ifIXsr13__is_durationIT_EE5valueES7_E4typeERKNS2_IT0_T1_EE, symObjAddr: 0x10B0, symBinAddr: 0x1000181F0, symSize: 0x30 }
  - { offsetInCU: 0xB80, offset: 0x3DC9B, size: 0x8, addend: 0x0, symName: __ZNSt3__16chrono13duration_castB7v160006INS0_8durationIdNS_5ratioILl1ELl1000000000EEEEEdNS3_ILl1ELl1EEEEENS_9enable_ifIXsr13__is_durationIT_EE5valueES8_E4typeERKNS2_IT0_T1_EE, symObjAddr: 0x11F0, symBinAddr: 0x100018310, symSize: 0x30 }
  - { offsetInCU: 0x66B8, offset: 0x437D3, size: 0x8, addend: 0x0, symName: __ZNSt3__111this_thread9sleep_forB7v160006IdNS_5ratioILl1ELl1EEEEEvRKNS_6chrono8durationIT_T0_EE, symObjAddr: 0x7C0, symBinAddr: 0x100017A80, symSize: 0xD0 }
  - { offsetInCU: 0x6C0D, offset: 0x43D28, size: 0x8, addend: 0x0, symName: __ZNSt3__14swapB7v160006IPPNS_6chrono10time_pointINS1_12steady_clockENS1_8durationIxNS_5ratioILl1ELl1000000000EEEEEEEEENS_9enable_ifIXaasr21is_move_constructibleIT_EE5valuesr18is_move_assignableISC_EE5valueEvE4typeERSC_SF_, symObjAddr: 0x3360, symBinAddr: 0x1000196C0, symSize: 0x40 }
  - { offsetInCU: 0x6C5E, offset: 0x43D79, size: 0x8, addend: 0x0, symName: __ZNSt3__14moveB7v160006IPPNS_6chrono10time_pointINS1_12steady_clockENS1_8durationIxNS_5ratioILl1ELl1000000000EEEEEEESA_EET0_T_SC_SB_, symObjAddr: 0x3470, symBinAddr: 0x100019780, symSize: 0x40 }
  - { offsetInCU: 0x6CB8, offset: 0x43DD3, size: 0x8, addend: 0x0, symName: __ZNSt3__16__moveB7v160006INS_17_ClassicAlgPolicyEPPNS_6chrono10time_pointINS2_12steady_clockENS2_8durationIxNS_5ratioILl1ELl1000000000EEEEEEESB_SB_EENS_4pairIT0_T2_EESD_T1_SE_, symObjAddr: 0x3620, symBinAddr: 0x100019920, symSize: 0x40 }
  - { offsetInCU: 0x6D24, offset: 0x43E3F, size: 0x8, addend: 0x0, symName: __ZNSt3__123__dispatch_copy_or_moveB7v160006INS_17_ClassicAlgPolicyENS_11__move_loopIS1_EENS_14__move_trivialEPPNS_6chrono10time_pointINS5_12steady_clockENS5_8durationIxNS_5ratioILl1ELl1000000000EEEEEEESE_SE_EENS_4pairIT2_T4_EESG_T3_SH_, symObjAddr: 0x3660, symBinAddr: 0x100019960, symSize: 0x40 }
  - { offsetInCU: 0x6DA2, offset: 0x43EBD, size: 0x8, addend: 0x0, symName: __ZNSt3__121__unwrap_and_dispatchB7v160006INS_10__overloadINS_11__move_loopINS_17_ClassicAlgPolicyEEENS_14__move_trivialEEEPPNS_6chrono10time_pointINS7_12steady_clockENS7_8durationIxNS_5ratioILl1ELl1000000000EEEEEEESG_SG_Li0EEENS_4pairIT0_T2_EESI_T1_SJ_, symObjAddr: 0x36A0, symBinAddr: 0x1000199A0, symSize: 0xB0 }
  - { offsetInCU: 0x6E31, offset: 0x43F4C, size: 0x8, addend: 0x0, symName: __ZNSt3__114__unwrap_rangeB7v160006IPPNS_6chrono10time_pointINS1_12steady_clockENS1_8durationIxNS_5ratioILl1ELl1000000000EEEEEEESA_EENS_4pairIT0_SC_EET_SE_, symObjAddr: 0x3750, symBinAddr: 0x100019A50, symSize: 0x50 }
  - { offsetInCU: 0x6FF5, offset: 0x44110, size: 0x8, addend: 0x0, symName: __ZNSt3__113__unwrap_iterB7v160006IPPNS_6chrono10time_pointINS1_12steady_clockENS1_8durationIxNS_5ratioILl1ELl1000000000EEEEEEENS_18__unwrap_iter_implISA_Lb1EEELi0EEEDTclsrT0_8__unwrapclsr3stdE7declvalIT_EEEESE_, symObjAddr: 0x37E0, symBinAddr: 0x100019AE0, symSize: 0x20 }
  - { offsetInCU: 0x7039, offset: 0x44154, size: 0x8, addend: 0x0, symName: __ZNSt3__19make_pairB7v160006IPPNS_6chrono10time_pointINS1_12steady_clockENS1_8durationIxNS_5ratioILl1ELl1000000000EEEEEEESA_EENS_4pairINS_18__unwrap_ref_decayIT_E4typeENSC_IT0_E4typeEEEOSD_OSG_, symObjAddr: 0x3800, symBinAddr: 0x100019B00, symSize: 0x30 }
  - { offsetInCU: 0x7088, offset: 0x441A3, size: 0x8, addend: 0x0, symName: __ZNSt3__114__rewrap_rangeB7v160006IPPNS_6chrono10time_pointINS1_12steady_clockENS1_8durationIxNS_5ratioILl1ELl1000000000EEEEEEESA_EET_SB_T0_, symObjAddr: 0x3830, symBinAddr: 0x100019B30, symSize: 0x30 }
  - { offsetInCU: 0x70D4, offset: 0x441EF, size: 0x8, addend: 0x0, symName: __ZNSt3__113__rewrap_iterB7v160006IPPNS_6chrono10time_pointINS1_12steady_clockENS1_8durationIxNS_5ratioILl1ELl1000000000EEEEEEESA_NS_18__unwrap_iter_implISA_Lb1EEEEET_SD_T0_, symObjAddr: 0x3860, symBinAddr: 0x100019B60, symSize: 0x40 }
  - { offsetInCU: 0x7129, offset: 0x44244, size: 0x8, addend: 0x0, symName: __ZNSt3__119__copy_trivial_implB7v160006IPNS_6chrono10time_pointINS1_12steady_clockENS1_8durationIxNS_5ratioILl1ELl1000000000EEEEEEES9_EENS_4pairIPT_PT0_EESC_SC_SE_, symObjAddr: 0x38A0, symBinAddr: 0x100019BA0, symSize: 0x70 }
  - { offsetInCU: 0x7191, offset: 0x442AC, size: 0x8, addend: 0x0, symName: __ZNSt3__19make_pairB7v160006IRPPNS_6chrono10time_pointINS1_12steady_clockENS1_8durationIxNS_5ratioILl1ELl1000000000EEEEEEESA_EENS_4pairINS_18__unwrap_ref_decayIT_E4typeENSD_IT0_E4typeEEEOSE_OSH_, symObjAddr: 0x3910, symBinAddr: 0x100019C10, symSize: 0x30 }
  - { offsetInCU: 0x7233, offset: 0x4434E, size: 0x8, addend: 0x0, symName: __ZNSt3__18distanceB7v160006INS_13move_iteratorIPPNS_6chrono10time_pointINS2_12steady_clockENS2_8durationIxNS_5ratioILl1ELl1000000000EEEEEEEEEEENS_15iterator_traitsIT_E15difference_typeESE_SE_, symObjAddr: 0x3A70, symBinAddr: 0x100019D70, symSize: 0x40 }
  - { offsetInCU: 0x7276, offset: 0x44391, size: 0x8, addend: 0x0, symName: __ZNSt3__110__distanceB7v160006INS_13move_iteratorIPPNS_6chrono10time_pointINS2_12steady_clockENS2_8durationIxNS_5ratioILl1ELl1000000000EEEEEEEEEEENS_15iterator_traitsIT_E15difference_typeESE_SE_NS_26random_access_iterator_tagE, symObjAddr: 0x3B90, symBinAddr: 0x100019E90, symSize: 0x30 }
  - { offsetInCU: 0x72C4, offset: 0x443DF, size: 0x8, addend: 0x0, symName: __ZNSt3__1miB7v160006IPPNS_6chrono10time_pointINS1_12steady_clockENS1_8durationIxNS_5ratioILl1ELl1000000000EEEEEEESA_EEDTmicldtfp_4baseEcldtfp0_4baseEERKNS_13move_iteratorIT_EERKNSC_IT0_EE, symObjAddr: 0x3BC0, symBinAddr: 0x100019EC0, symSize: 0x40 }
  - { offsetInCU: 0x7313, offset: 0x4442E, size: 0x8, addend: 0x0, symName: __ZNSt3__113move_backwardB7v160006IPPNS_6chrono10time_pointINS1_12steady_clockENS1_8durationIxNS_5ratioILl1ELl1000000000EEEEEEESA_EET0_T_SC_SB_, symObjAddr: 0x3E80, symBinAddr: 0x10001A0B0, symSize: 0x40 }
  - { offsetInCU: 0x736D, offset: 0x44488, size: 0x8, addend: 0x0, symName: __ZNSt3__115__move_backwardB7v160006INS_17_ClassicAlgPolicyEPPNS_6chrono10time_pointINS2_12steady_clockENS2_8durationIxNS_5ratioILl1ELl1000000000EEEEEEESB_SB_EENS_4pairIT0_T2_EESD_T1_SE_, symObjAddr: 0x3EC0, symBinAddr: 0x10001A0F0, symSize: 0x40 }
  - { offsetInCU: 0x73D9, offset: 0x444F4, size: 0x8, addend: 0x0, symName: __ZNSt3__123__dispatch_copy_or_moveB7v160006INS_17_ClassicAlgPolicyENS_20__move_backward_loopIS1_EENS_23__move_backward_trivialEPPNS_6chrono10time_pointINS5_12steady_clockENS5_8durationIxNS_5ratioILl1ELl1000000000EEEEEEESE_SE_EENS_4pairIT2_T4_EESG_T3_SH_, symObjAddr: 0x3F00, symBinAddr: 0x10001A130, symSize: 0x40 }
  - { offsetInCU: 0x7457, offset: 0x44572, size: 0x8, addend: 0x0, symName: __ZNSt3__121__unwrap_and_dispatchB7v160006INS_10__overloadINS_20__move_backward_loopINS_17_ClassicAlgPolicyEEENS_23__move_backward_trivialEEEPPNS_6chrono10time_pointINS7_12steady_clockENS7_8durationIxNS_5ratioILl1ELl1000000000EEEEEEESG_SG_Li0EEENS_4pairIT0_T2_EESI_T1_SJ_, symObjAddr: 0x3F40, symBinAddr: 0x10001A170, symSize: 0xB0 }
  - { offsetInCU: 0x752C, offset: 0x44647, size: 0x8, addend: 0x0, symName: __ZNSt3__128__copy_backward_trivial_implB7v160006IPNS_6chrono10time_pointINS1_12steady_clockENS1_8durationIxNS_5ratioILl1ELl1000000000EEEEEEES9_EENS_4pairIPT_PT0_EESC_SC_SE_, symObjAddr: 0x4030, symBinAddr: 0x10001A260, symSize: 0x80 }
  - { offsetInCU: 0x7594, offset: 0x446AF, size: 0x8, addend: 0x0, symName: __ZNSt3__19make_pairB7v160006IRPPNS_6chrono10time_pointINS1_12steady_clockENS1_8durationIxNS_5ratioILl1ELl1000000000EEEEEEESB_EENS_4pairINS_18__unwrap_ref_decayIT_E4typeENSD_IT0_E4typeEEEOSE_OSH_, symObjAddr: 0x40B0, symBinAddr: 0x10001A2E0, symSize: 0x30 }
  - { offsetInCU: 0x75E3, offset: 0x446FE, size: 0x8, addend: 0x0, symName: __ZNSt3__119__allocate_at_leastB7v160006INS_9allocatorIPNS_6chrono10time_pointINS2_12steady_clockENS2_8durationIxNS_5ratioILl1ELl1000000000EEEEEEEEEEENS_19__allocation_resultINS_16allocator_traitsIT_E7pointerEEERSE_m, symObjAddr: 0x42F0, symBinAddr: 0x10001A470, symSize: 0x40 }
  - { offsetInCU: 0x77B5, offset: 0x448D0, size: 0x8, addend: 0x0, symName: __ZNKSt3__16chrono13__duration_ltINS0_8durationIdNS_5ratioILl1ELl1EEEEENS2_IeS4_EEEclB7v160006ERKS5_RKS6_, symObjAddr: 0xD30, symBinAddr: 0x100017ED0, symSize: 0x60 }
  - { offsetInCU: 0x7820, offset: 0x4493B, size: 0x8, addend: 0x0, symName: __ZNKSt3__16chrono15__duration_castINS0_8durationIdNS_5ratioILl1ELl1EEEEENS2_IxNS3_ILl1ELl1000000000EEEEENS3_ILl1000000000ELl1EEELb0ELb1EEclB7v160006ERKS5_, symObjAddr: 0xED0, symBinAddr: 0x100018060, symSize: 0x50 }
  - { offsetInCU: 0x7869, offset: 0x44984, size: 0x8, addend: 0x0, symName: __ZNKSt3__16chrono13__duration_ltINS0_8durationIxNS_5ratioILl1ELl1000000000EEEEENS2_IdNS3_ILl1ELl1EEEEEEclB7v160006ERKS5_RKS7_, symObjAddr: 0xF70, symBinAddr: 0x1000180B0, symSize: 0x70 }
  - { offsetInCU: 0x78E6, offset: 0x44A01, size: 0x8, addend: 0x0, symName: __ZNKSt3__16chrono15__duration_castINS0_8durationIdNS_5ratioILl1ELl1EEEEENS2_IdNS3_ILl1ELl1000000000EEEEENS3_ILl1000000000ELl1EEELb0ELb1EEclB7v160006ERKS5_, symObjAddr: 0x1220, symBinAddr: 0x100018340, symSize: 0x50 }
  - { offsetInCU: 0x9D49, offset: 0x46E64, size: 0x8, addend: 0x0, symName: __ZN4BotsC2Edii, symObjAddr: 0x0, symBinAddr: 0x1000172C0, symSize: 0x30 }
  - { offsetInCU: 0x9D9F, offset: 0x46EBA, size: 0x8, addend: 0x0, symName: __ZN4BotsC1Edii, symObjAddr: 0x30, symBinAddr: 0x1000172F0, symSize: 0x40 }
  - { offsetInCU: 0x9DF5, offset: 0x46F10, size: 0x8, addend: 0x0, symName: __ZN4Bots9bot_tradeER6MarketRNSt3__15mutexEidRNS2_6atomicIbEE, symObjAddr: 0x70, symBinAddr: 0x100017330, symSize: 0x6F0 }
  - { offsetInCU: 0x9EFE, offset: 0x47019, size: 0x8, addend: 0x0, symName: __ZNSt3__16chrono8durationIdNS_5ratioILl1ELl1EEEEC1B7v160006IdEERKT_PNS_9enable_ifIXaasr14is_convertibleIS8_dEE5valueooL_ZNS_17integral_constantIbLb1EE5valueEEntsr23treat_as_floating_pointIS6_EE5valueEvE4typeE, symObjAddr: 0x760, symBinAddr: 0x100017A20, symSize: 0x30 }
  - { offsetInCU: 0x9F48, offset: 0x47063, size: 0x8, addend: 0x0, symName: __ZNKSt3__113__atomic_baseIbLb0EEcvbB7v160006Ev, symObjAddr: 0x790, symBinAddr: 0x100017A50, symSize: 0x30 }
  - { offsetInCU: 0x9F88, offset: 0x470A3, size: 0x8, addend: 0x0, symName: __ZNSt3__110lock_guardINS_5mutexEEC1B7v160006ERS1_, symObjAddr: 0x890, symBinAddr: 0x100017B50, symSize: 0x30 }
  - { offsetInCU: 0x9FBE, offset: 0x470D9, size: 0x8, addend: 0x0, symName: __ZNSt3__15queueINS_6chrono10time_pointINS1_12steady_clockENS1_8durationIxNS_5ratioILl1ELl1000000000EEEEEEENS_5dequeIS8_NS_9allocatorIS8_EEEEE4pushB7v160006EOS8_, symObjAddr: 0x970, symBinAddr: 0x100017B80, symSize: 0x30 }
  - { offsetInCU: 0x9FF4, offset: 0x4710F, size: 0x8, addend: 0x0, symName: __ZNSt3__110lock_guardINS_5mutexEED1B7v160006Ev, symObjAddr: 0x9A0, symBinAddr: 0x100017BB0, symSize: 0x20 }
  - { offsetInCU: 0xA01D, offset: 0x47138, size: 0x8, addend: 0x0, symName: __ZNK4Bots7getCashEv, symObjAddr: 0x9C0, symBinAddr: 0x100017BD0, symSize: 0x20 }
  - { offsetInCU: 0xA045, offset: 0x47160, size: 0x8, addend: 0x0, symName: __ZN4Bots7setCashEd, symObjAddr: 0x9E0, symBinAddr: 0x100017BF0, symSize: 0x20 }
  - { offsetInCU: 0xA07B, offset: 0x47196, size: 0x8, addend: 0x0, symName: __ZNK4Bots9getAssetsEv, symObjAddr: 0xA00, symBinAddr: 0x100017C10, symSize: 0x20 }
  - { offsetInCU: 0xA0A3, offset: 0x471BE, size: 0x8, addend: 0x0, symName: __ZN4Bots9setAssetsEi, symObjAddr: 0xA20, symBinAddr: 0x100017C30, symSize: 0x20 }
  - { offsetInCU: 0xA0D9, offset: 0x471F4, size: 0x8, addend: 0x0, symName: __ZNSt3__16chrono8durationIdNS_5ratioILl1ELl1EEEEC2B7v160006IdEERKT_PNS_9enable_ifIXaasr14is_convertibleIS8_dEE5valueooL_ZNS_17integral_constantIbLb1EE5valueEEntsr23treat_as_floating_pointIS6_EE5valueEvE4typeE, symObjAddr: 0xA40, symBinAddr: 0x100017C50, symSize: 0x30 }
  - { offsetInCU: 0xA123, offset: 0x4723E, size: 0x8, addend: 0x0, symName: __ZNKSt3__113__atomic_baseIbLb0EE4loadB7v160006ENS_12memory_orderE, symObjAddr: 0xA70, symBinAddr: 0x100017C80, symSize: 0x30 }
  - { offsetInCU: 0xA159, offset: 0x47274, size: 0x8, addend: 0x0, symName: __ZNSt3__16chrono8durationIdNS_5ratioILl1ELl1EEEE4zeroB7v160006Ev, symObjAddr: 0xB40, symBinAddr: 0x100017D50, symSize: 0x40 }
  - { offsetInCU: 0xA176, offset: 0x47291, size: 0x8, addend: 0x0, symName: __ZNKSt3__16chrono13__duration_ltINS0_8durationIdNS_5ratioILl1ELl1EEEEES5_EclB7v160006ERKS5_S8_, symObjAddr: 0xCA0, symBinAddr: 0x100017E50, symSize: 0x50 }
  - { offsetInCU: 0xA1BA, offset: 0x472D5, size: 0x8, addend: 0x0, symName: __ZNKSt3__16chrono8durationIdNS_5ratioILl1ELl1EEEE5countB7v160006Ev, symObjAddr: 0xCF0, symBinAddr: 0x100017EA0, symSize: 0x20 }
  - { offsetInCU: 0xA1E1, offset: 0x472FC, size: 0x8, addend: 0x0, symName: __ZNSt3__16chrono15duration_valuesIdE4zeroB7v160006Ev, symObjAddr: 0xD10, symBinAddr: 0x100017EC0, symSize: 0x10 }
  - { offsetInCU: 0xA1F5, offset: 0x47310, size: 0x8, addend: 0x0, symName: __ZNSt3__16chrono8durationIeNS_5ratioILl1ELl1EEEEC1B7v160006IdS3_EERKNS1_IT_T0_EEPNS_9enable_ifIXaasr13__no_overflowIS7_S3_EE5valueooL_ZNS_17integral_constantIbLb1EE5valueEEaaeqsr13__no_overflowIS7_S3_E4typeE3denLi1Entsr23treat_as_floating_pointIS6_EE5valueEvE4typeE, symObjAddr: 0xD90, symBinAddr: 0x100017F30, symSize: 0x30 }
  - { offsetInCU: 0xA24A, offset: 0x47365, size: 0x8, addend: 0x0, symName: __ZNSt3__16chrono8durationIeNS_5ratioILl1ELl1EEEEC2B7v160006IdS3_EERKNS1_IT_T0_EEPNS_9enable_ifIXaasr13__no_overflowIS7_S3_EE5valueooL_ZNS_17integral_constantIbLb1EE5valueEEaaeqsr13__no_overflowIS7_S3_E4typeE3denLi1Entsr23treat_as_floating_pointIS6_EE5valueEvE4typeE, symObjAddr: 0xDD0, symBinAddr: 0x100017F60, symSize: 0x40 }
  - { offsetInCU: 0xA2A8, offset: 0x473C3, size: 0x8, addend: 0x0, symName: __ZNKSt3__16chrono15__duration_castINS0_8durationIdNS_5ratioILl1ELl1EEEEENS2_IeS4_EES4_Lb1ELb1EEclB7v160006ERKS5_, symObjAddr: 0xE40, symBinAddr: 0x100017FD0, symSize: 0x40 }
  - { offsetInCU: 0xA2E7, offset: 0x47402, size: 0x8, addend: 0x0, symName: __ZNSt3__16chrono8durationIeNS_5ratioILl1ELl1EEEEC1B7v160006IeEERKT_PNS_9enable_ifIXaasr14is_convertibleIS8_eEE5valueooL_ZNS_17integral_constantIbLb1EE5valueEEntsr23treat_as_floating_pointIS6_EE5valueEvE4typeE, symObjAddr: 0xE80, symBinAddr: 0x100018010, symSize: 0x30 }
  - { offsetInCU: 0xA332, offset: 0x4744D, size: 0x8, addend: 0x0, symName: __ZNSt3__16chrono8durationIeNS_5ratioILl1ELl1EEEEC2B7v160006IeEERKT_PNS_9enable_ifIXaasr14is_convertibleIS8_eEE5valueooL_ZNS_17integral_constantIbLb1EE5valueEEntsr23treat_as_floating_pointIS6_EE5valueEvE4typeE, symObjAddr: 0xEB0, symBinAddr: 0x100018040, symSize: 0x20 }
  - { offsetInCU: 0xA37D, offset: 0x47498, size: 0x8, addend: 0x0, symName: __ZNSt3__16chrono8durationIdNS_5ratioILl1ELl1000000000EEEEC1B7v160006IxS3_EERKNS1_IT_T0_EEPNS_9enable_ifIXaasr13__no_overflowIS7_S3_EE5valueooL_ZNS_17integral_constantIbLb1EE5valueEEaaeqsr13__no_overflowIS7_S3_E4typeE3denLi1Entsr23treat_as_floating_pointIS6_EE5valueEvE4typeE, symObjAddr: 0xFE0, symBinAddr: 0x100018120, symSize: 0x30 }
  - { offsetInCU: 0xA3D1, offset: 0x474EC, size: 0x8, addend: 0x0, symName: __ZNKSt3__16chrono8durationIdNS_5ratioILl1ELl1000000000EEEE5countB7v160006Ev, symObjAddr: 0x1010, symBinAddr: 0x100018150, symSize: 0x20 }
  - { offsetInCU: 0xA3F8, offset: 0x47513, size: 0x8, addend: 0x0, symName: __ZNSt3__16chrono8durationIdNS_5ratioILl1ELl1000000000EEEEC1B7v160006IdNS2_ILl1ELl1EEEEERKNS1_IT_T0_EEPNS_9enable_ifIXaasr13__no_overflowIS8_S3_EE5valueooL_ZNS_17integral_constantIbLb1EE5valueEEaaeqsr13__no_overflowIS8_S3_E4typeE3denLi1Entsr23treat_as_floating_pointIS7_EE5valueEvE4typeE, symObjAddr: 0x1030, symBinAddr: 0x100018170, symSize: 0x30 }
  - { offsetInCU: 0xA44D, offset: 0x47568, size: 0x8, addend: 0x0, symName: __ZNSt3__16chrono8durationIdNS_5ratioILl1ELl1000000000EEEEC2B7v160006IxS3_EERKNS1_IT_T0_EEPNS_9enable_ifIXaasr13__no_overflowIS7_S3_EE5valueooL_ZNS_17integral_constantIbLb1EE5valueEEaaeqsr13__no_overflowIS7_S3_E4typeE3denLi1Entsr23treat_as_floating_pointIS6_EE5valueEvE4typeE, symObjAddr: 0x1060, symBinAddr: 0x1000181A0, symSize: 0x50 }
  - { offsetInCU: 0xA4AB, offset: 0x475C6, size: 0x8, addend: 0x0, symName: __ZNKSt3__16chrono15__duration_castINS0_8durationIxNS_5ratioILl1ELl1000000000EEEEENS2_IdS4_EENS3_ILl1ELl1EEELb1ELb1EEclB7v160006ERKS5_, symObjAddr: 0x10E0, symBinAddr: 0x100018220, symSize: 0x40 }
  - { offsetInCU: 0xA4E0, offset: 0x475FB, size: 0x8, addend: 0x0, symName: __ZNSt3__16chrono8durationIdNS_5ratioILl1ELl1000000000EEEEC1B7v160006IdEERKT_PNS_9enable_ifIXaasr14is_convertibleIS8_dEE5valueooL_ZNS_17integral_constantIbLb1EE5valueEEntsr23treat_as_floating_pointIS6_EE5valueEvE4typeE, symObjAddr: 0x1140, symBinAddr: 0x100018260, symSize: 0x30 }
  - { offsetInCU: 0xA52B, offset: 0x47646, size: 0x8, addend: 0x0, symName: __ZNSt3__16chrono8durationIdNS_5ratioILl1ELl1000000000EEEEC2B7v160006IdEERKT_PNS_9enable_ifIXaasr14is_convertibleIS8_dEE5valueooL_ZNS_17integral_constantIbLb1EE5valueEEntsr23treat_as_floating_pointIS6_EE5valueEvE4typeE, symObjAddr: 0x1170, symBinAddr: 0x100018290, symSize: 0x30 }
  - { offsetInCU: 0xA576, offset: 0x47691, size: 0x8, addend: 0x0, symName: __ZNSt3__16chrono8durationIdNS_5ratioILl1ELl1000000000EEEEC2B7v160006IdNS2_ILl1ELl1EEEEERKNS1_IT_T0_EEPNS_9enable_ifIXaasr13__no_overflowIS8_S3_EE5valueooL_ZNS_17integral_constantIbLb1EE5valueEEaaeqsr13__no_overflowIS8_S3_E4typeE3denLi1Entsr23treat_as_floating_pointIS7_EE5valueEvE4typeE, symObjAddr: 0x11A0, symBinAddr: 0x1000182C0, symSize: 0x50 }
  - { offsetInCU: 0xA5CB, offset: 0x476E6, size: 0x8, addend: 0x0, symName: __ZNSt3__110lock_guardINS_5mutexEEC2B7v160006ERS1_, symObjAddr: 0x12A0, symBinAddr: 0x100018390, symSize: 0x30 }
  - { offsetInCU: 0xA602, offset: 0x4771D, size: 0x8, addend: 0x0, symName: __ZNSt3__110lock_guardINS_5mutexEED2B7v160006Ev, symObjAddr: 0x12D0, symBinAddr: 0x1000183C0, symSize: 0x20 }
  - { offsetInCU: 0xA630, offset: 0x4774B, size: 0x8, addend: 0x0, symName: __ZNSt3__15dequeINS_6chrono10time_pointINS1_12steady_clockENS1_8durationIxNS_5ratioILl1ELl1000000000EEEEEEENS_9allocatorIS8_EEE9push_backEOS8_, symObjAddr: 0x1D70, symBinAddr: 0x1000183E0, symSize: 0x90 }
  - { offsetInCU: 0xA676, offset: 0x47791, size: 0x8, addend: 0x0, symName: __ZNKSt3__15dequeINS_6chrono10time_pointINS1_12steady_clockENS1_8durationIxNS_5ratioILl1ELl1000000000EEEEEEENS_9allocatorIS8_EEE12__back_spareB7v160006Ev, symObjAddr: 0x1E20, symBinAddr: 0x100018470, symSize: 0x50 }
  - { offsetInCU: 0xA69D, offset: 0x477B8, size: 0x8, addend: 0x0, symName: __ZNSt3__15dequeINS_6chrono10time_pointINS1_12steady_clockENS1_8durationIxNS_5ratioILl1ELl1000000000EEEEEEENS_9allocatorIS8_EEE19__add_back_capacityEv, symObjAddr: 0x1E70, symBinAddr: 0x1000184C0, symSize: 0x380 }
  - { offsetInCU: 0xA761, offset: 0x4787C, size: 0x8, addend: 0x0, symName: __ZNSt3__116allocator_traitsINS_9allocatorINS_6chrono10time_pointINS2_12steady_clockENS2_8durationIxNS_5ratioILl1ELl1000000000EEEEEEEEEE9constructB7v160006IS9_JS9_EvEEvRSA_PT_DpOT0_, symObjAddr: 0x21F0, symBinAddr: 0x100018840, symSize: 0x30 }
  - { offsetInCU: 0xA7B7, offset: 0x478D2, size: 0x8, addend: 0x0, symName: __ZNKSt3__15dequeINS_6chrono10time_pointINS1_12steady_clockENS1_8durationIxNS_5ratioILl1ELl1000000000EEEEEEENS_9allocatorIS8_EEE10__capacityB7v160006Ev, symObjAddr: 0x2350, symBinAddr: 0x100018870, symSize: 0x50 }
  - { offsetInCU: 0xA7DE, offset: 0x478F9, size: 0x8, addend: 0x0, symName: __ZNSt3__114__split_bufferIPNS_6chrono10time_pointINS1_12steady_clockENS1_8durationIxNS_5ratioILl1ELl1000000000EEEEEEENS_9allocatorIS9_EEE9push_backB7v160006ERKS9_, symObjAddr: 0x24A0, symBinAddr: 0x1000188C0, symSize: 0x290 }
  - { offsetInCU: 0xA85A, offset: 0x47975, size: 0x8, addend: 0x0, symName: __ZNKSt3__114__split_bufferIPNS_6chrono10time_pointINS1_12steady_clockENS1_8durationIxNS_5ratioILl1ELl1000000000EEEEEEENS_9allocatorIS9_EEE12__back_spareB7v160006Ev, symObjAddr: 0x2760, symBinAddr: 0x100018B50, symSize: 0x40 }
  - { offsetInCU: 0xA881, offset: 0x4799C, size: 0x8, addend: 0x0, symName: __ZNSt3__114__split_bufferIPNS_6chrono10time_pointINS1_12steady_clockENS1_8durationIxNS_5ratioILl1ELl1000000000EEEEEEENS_9allocatorIS9_EEE9push_backEOS9_, symObjAddr: 0x27A0, symBinAddr: 0x100018B90, symSize: 0x290 }
  - { offsetInCU: 0xA8FE, offset: 0x47A19, size: 0x8, addend: 0x0, symName: __ZNSt3__116allocator_traitsINS_9allocatorINS_6chrono10time_pointINS2_12steady_clockENS2_8durationIxNS_5ratioILl1ELl1000000000EEEEEEEEEE8allocateB7v160006ERSA_m, symObjAddr: 0x2A30, symBinAddr: 0x100018E20, symSize: 0x30 }
  - { offsetInCU: 0xA931, offset: 0x47A4C, size: 0x8, addend: 0x0, symName: __ZNSt3__114__split_bufferIPNS_6chrono10time_pointINS1_12steady_clockENS1_8durationIxNS_5ratioILl1ELl1000000000EEEEEEENS_9allocatorIS9_EEE10push_frontEOS9_, symObjAddr: 0x2A60, symBinAddr: 0x100018E50, symSize: 0x270 }
  - { offsetInCU: 0xA9AE, offset: 0x47AC9, size: 0x8, addend: 0x0, symName: __ZNSt3__114__split_bufferIPNS_6chrono10time_pointINS1_12steady_clockENS1_8durationIxNS_5ratioILl1ELl1000000000EEEEEEERNS_9allocatorIS9_EEEC1EmmSC_, symObjAddr: 0x2D20, symBinAddr: 0x1000190C0, symSize: 0x40 }
  - { offsetInCU: 0xAA09, offset: 0x47B24, size: 0x8, addend: 0x0, symName: __ZNSt3__122__allocator_destructorINS_9allocatorINS_6chrono10time_pointINS2_12steady_clockENS2_8durationIxNS_5ratioILl1ELl1000000000EEEEEEEEEEC1B7v160006ERSA_m, symObjAddr: 0x2D60, symBinAddr: 0x100019100, symSize: 0x30 }
  - { offsetInCU: 0xAACB, offset: 0x47BE6, size: 0x8, addend: 0x0, symName: __ZNSt3__110unique_ptrIPNS_6chrono10time_pointINS1_12steady_clockENS1_8durationIxNS_5ratioILl1ELl1000000000EEEEEEENS_22__allocator_destructorINS_9allocatorIS8_EEEEEC1B7v160006ILb1EvEES9_NS_16__dependent_typeINS_27__unique_ptr_deleter_sfinaeISD_EEXT_EE20__good_rval_ref_typeE, symObjAddr: 0x2D90, symBinAddr: 0x100019130, symSize: 0x30 }
  - { offsetInCU: 0xAB1B, offset: 0x47C36, size: 0x8, addend: 0x0, symName: __ZNSt3__114__split_bufferIPNS_6chrono10time_pointINS1_12steady_clockENS1_8durationIxNS_5ratioILl1ELl1000000000EEEEEEERNS_9allocatorIS9_EEE9push_backEOS9_, symObjAddr: 0x2DC0, symBinAddr: 0x100019160, symSize: 0x290 }
  - { offsetInCU: 0xAB97, offset: 0x47CB2, size: 0x8, addend: 0x0, symName: __ZNKSt3__110unique_ptrIPNS_6chrono10time_pointINS1_12steady_clockENS1_8durationIxNS_5ratioILl1ELl1000000000EEEEEEENS_22__allocator_destructorINS_9allocatorIS8_EEEEE3getB7v160006Ev, symObjAddr: 0x3050, symBinAddr: 0x1000193F0, symSize: 0x20 }
  - { offsetInCU: 0xABBD, offset: 0x47CD8, size: 0x8, addend: 0x0, symName: __ZNSt3__110unique_ptrIPNS_6chrono10time_pointINS1_12steady_clockENS1_8durationIxNS_5ratioILl1ELl1000000000EEEEEEENS_22__allocator_destructorINS_9allocatorIS8_EEEEE7releaseB7v160006Ev, symObjAddr: 0x3070, symBinAddr: 0x100019410, symSize: 0x40 }
  - { offsetInCU: 0xABF4, offset: 0x47D0F, size: 0x8, addend: 0x0, symName: __ZNSt3__114__split_bufferIPNS_6chrono10time_pointINS1_12steady_clockENS1_8durationIxNS_5ratioILl1ELl1000000000EEEEEEERNS_9allocatorIS9_EEE10push_frontERKS9_, symObjAddr: 0x30F0, symBinAddr: 0x100019450, symSize: 0x270 }
  - { offsetInCU: 0xAC70, offset: 0x47D8B, size: 0x8, addend: 0x0, symName: __ZNSt3__114__split_bufferIPNS_6chrono10time_pointINS1_12steady_clockENS1_8durationIxNS_5ratioILl1ELl1000000000EEEEEEENS_9allocatorIS9_EEE9__end_capB7v160006Ev, symObjAddr: 0x33A0, symBinAddr: 0x100019700, symSize: 0x20 }
  - { offsetInCU: 0xAC96, offset: 0x47DB1, size: 0x8, addend: 0x0, symName: __ZNSt3__114__split_bufferIPNS_6chrono10time_pointINS1_12steady_clockENS1_8durationIxNS_5ratioILl1ELl1000000000EEEEEEERNS_9allocatorIS9_EEE9__end_capB7v160006Ev, symObjAddr: 0x33C0, symBinAddr: 0x100019720, symSize: 0x20 }
  - { offsetInCU: 0xACBD, offset: 0x47DD8, size: 0x8, addend: 0x0, symName: __ZNSt3__110unique_ptrIPNS_6chrono10time_pointINS1_12steady_clockENS1_8durationIxNS_5ratioILl1ELl1000000000EEEEEEENS_22__allocator_destructorINS_9allocatorIS8_EEEEED1B7v160006Ev, symObjAddr: 0x33E0, symBinAddr: 0x100019740, symSize: 0x20 }
  - { offsetInCU: 0xACE6, offset: 0x47E01, size: 0x8, addend: 0x0, symName: __ZNSt3__114__split_bufferIPNS_6chrono10time_pointINS1_12steady_clockENS1_8durationIxNS_5ratioILl1ELl1000000000EEEEEEERNS_9allocatorIS9_EEED1Ev, symObjAddr: 0x3400, symBinAddr: 0x100019760, symSize: 0x20 }
  - { offsetInCU: 0xAD12, offset: 0x47E2D, size: 0x8, addend: 0x0, symName: __ZNSt3__114__split_bufferIPNS_6chrono10time_pointINS1_12steady_clockENS1_8durationIxNS_5ratioILl1ELl1000000000EEEEEEERNS_9allocatorIS9_EEE18__construct_at_endINS_13move_iteratorIPS9_EEEENS_9enable_ifIXsr27__is_cpp17_forward_iteratorIT_EE5valueEvE4typeESJ_SJ_, symObjAddr: 0x34B0, symBinAddr: 0x1000197C0, symSize: 0x100 }
  - { offsetInCU: 0xAD6F, offset: 0x47E8A, size: 0x8, addend: 0x0, symName: __ZNSt3__113move_iteratorIPPNS_6chrono10time_pointINS1_12steady_clockENS1_8durationIxNS_5ratioILl1ELl1000000000EEEEEEEEC1B7v160006ESA_, symObjAddr: 0x35B0, symBinAddr: 0x1000198C0, symSize: 0x30 }
  - { offsetInCU: 0xADA6, offset: 0x47EC1, size: 0x8, addend: 0x0, symName: __ZNSt3__116allocator_traitsINS_9allocatorIPNS_6chrono10time_pointINS2_12steady_clockENS2_8durationIxNS_5ratioILl1ELl1000000000EEEEEEEEEE9constructB7v160006ISA_JRKSA_EvEEvRSB_PT_DpOT0_, symObjAddr: 0x35E0, symBinAddr: 0x1000198F0, symSize: 0x30 }
  - { offsetInCU: 0xAE1F, offset: 0x47F3A, size: 0x8, addend: 0x0, symName: __ZNKSt3__114__move_trivialclB7v160006IPNS_6chrono10time_pointINS2_12steady_clockENS2_8durationIxNS_5ratioILl1ELl1000000000EEEEEEESA_Li0EEENS_4pairIPT_PT0_EESD_SD_SF_, symObjAddr: 0x37A0, symBinAddr: 0x100019AA0, symSize: 0x40 }
  - { offsetInCU: 0xAE8D, offset: 0x47FA8, size: 0x8, addend: 0x0, symName: __ZNSt3__14pairIPPNS_6chrono10time_pointINS1_12steady_clockENS1_8durationIxNS_5ratioILl1ELl1000000000EEEEEEESA_EC1B7v160006IRSA_SA_LPv0EEEOT_OT0_, symObjAddr: 0x3940, symBinAddr: 0x100019C40, symSize: 0x30 }
  - { offsetInCU: 0xAEEA, offset: 0x48005, size: 0x8, addend: 0x0, symName: __ZNSt3__14pairIPPNS_6chrono10time_pointINS1_12steady_clockENS1_8durationIxNS_5ratioILl1ELl1000000000EEEEEEESA_EC2B7v160006IRSA_SA_LPv0EEEOT_OT0_, symObjAddr: 0x3970, symBinAddr: 0x100019C70, symSize: 0x30 }
  - { offsetInCU: 0xAF47, offset: 0x48062, size: 0x8, addend: 0x0, symName: __ZNSt3__118__unwrap_iter_implIPPNS_6chrono10time_pointINS1_12steady_clockENS1_8durationIxNS_5ratioILl1ELl1000000000EEEEEEELb1EE8__unwrapB7v160006ESA_, symObjAddr: 0x39A0, symBinAddr: 0x100019CA0, symSize: 0x20 }
  - { offsetInCU: 0xAF6A, offset: 0x48085, size: 0x8, addend: 0x0, symName: __ZNSt3__14pairIPPNS_6chrono10time_pointINS1_12steady_clockENS1_8durationIxNS_5ratioILl1ELl1000000000EEEEEEESA_EC1B7v160006ISA_SA_LPv0EEEOT_OT0_, symObjAddr: 0x39C0, symBinAddr: 0x100019CC0, symSize: 0x30 }
  - { offsetInCU: 0xAFC7, offset: 0x480E2, size: 0x8, addend: 0x0, symName: __ZNSt3__14pairIPPNS_6chrono10time_pointINS1_12steady_clockENS1_8durationIxNS_5ratioILl1ELl1000000000EEEEEEESA_EC2B7v160006ISA_SA_LPv0EEEOT_OT0_, symObjAddr: 0x39F0, symBinAddr: 0x100019CF0, symSize: 0x30 }
  - { offsetInCU: 0xB024, offset: 0x4813F, size: 0x8, addend: 0x0, symName: __ZNSt3__118__unwrap_iter_implIPPNS_6chrono10time_pointINS1_12steady_clockENS1_8durationIxNS_5ratioILl1ELl1000000000EEEEEEELb1EE8__rewrapB7v160006ESA_SA_, symObjAddr: 0x3A20, symBinAddr: 0x100019D20, symSize: 0x50 }
  - { offsetInCU: 0xB05F, offset: 0x4817A, size: 0x8, addend: 0x0, symName: __ZNSt3__114__split_bufferIPNS_6chrono10time_pointINS1_12steady_clockENS1_8durationIxNS_5ratioILl1ELl1000000000EEEEEEERNS_9allocatorIS9_EEE21_ConstructTransactionC1B7v160006EPPS9_m, symObjAddr: 0x3AB0, symBinAddr: 0x100019DB0, symSize: 0x30 }
  - { offsetInCU: 0xB0A4, offset: 0x481BF, size: 0x8, addend: 0x0, symName: __ZNSt3__116allocator_traitsINS_9allocatorIPNS_6chrono10time_pointINS2_12steady_clockENS2_8durationIxNS_5ratioILl1ELl1000000000EEEEEEEEEE9constructB7v160006ISA_JSA_EvEEvRSB_PT_DpOT0_, symObjAddr: 0x3AE0, symBinAddr: 0x100019DE0, symSize: 0x30 }
  - { offsetInCU: 0xB0FA, offset: 0x48215, size: 0x8, addend: 0x0, symName: __ZNSt3__114__split_bufferIPNS_6chrono10time_pointINS1_12steady_clockENS1_8durationIxNS_5ratioILl1ELl1000000000EEEEEEERNS_9allocatorIS9_EEE7__allocB7v160006Ev, symObjAddr: 0x3B10, symBinAddr: 0x100019E10, symSize: 0x20 }
  - { offsetInCU: 0xB120, offset: 0x4823B, size: 0x8, addend: 0x0, symName: __ZNKSt3__113move_iteratorIPPNS_6chrono10time_pointINS1_12steady_clockENS1_8durationIxNS_5ratioILl1ELl1000000000EEEEEEEEdeB7v160006Ev, symObjAddr: 0x3B30, symBinAddr: 0x100019E30, symSize: 0x20 }
  - { offsetInCU: 0xB146, offset: 0x48261, size: 0x8, addend: 0x0, symName: __ZNSt3__113move_iteratorIPPNS_6chrono10time_pointINS1_12steady_clockENS1_8durationIxNS_5ratioILl1ELl1000000000EEEEEEEEppB7v160006Ev, symObjAddr: 0x3B50, symBinAddr: 0x100019E50, symSize: 0x20 }
  - { offsetInCU: 0xB16D, offset: 0x48288, size: 0x8, addend: 0x0, symName: __ZNSt3__114__split_bufferIPNS_6chrono10time_pointINS1_12steady_clockENS1_8durationIxNS_5ratioILl1ELl1000000000EEEEEEERNS_9allocatorIS9_EEE21_ConstructTransactionD1B7v160006Ev, symObjAddr: 0x3B70, symBinAddr: 0x100019E70, symSize: 0x20 }
  - { offsetInCU: 0xB195, offset: 0x482B0, size: 0x8, addend: 0x0, symName: __ZNKSt3__113move_iteratorIPPNS_6chrono10time_pointINS1_12steady_clockENS1_8durationIxNS_5ratioILl1ELl1000000000EEEEEEEE4baseB7v160006Ev, symObjAddr: 0x3C00, symBinAddr: 0x100019F00, symSize: 0x20 }
  - { offsetInCU: 0xB1BC, offset: 0x482D7, size: 0x8, addend: 0x0, symName: __ZNSt3__114__split_bufferIPNS_6chrono10time_pointINS1_12steady_clockENS1_8durationIxNS_5ratioILl1ELl1000000000EEEEEEERNS_9allocatorIS9_EEE21_ConstructTransactionC2B7v160006EPPS9_m, symObjAddr: 0x3C20, symBinAddr: 0x100019F20, symSize: 0x40 }
  - { offsetInCU: 0xB200, offset: 0x4831B, size: 0x8, addend: 0x0, symName: __ZNSt3__19allocatorIPNS_6chrono10time_pointINS1_12steady_clockENS1_8durationIxNS_5ratioILl1ELl1000000000EEEEEEEE9constructB7v160006IS9_JS9_EEEvPT_DpOT0_, symObjAddr: 0x3C60, symBinAddr: 0x100019F60, symSize: 0x20 }
  - { offsetInCU: 0xB256, offset: 0x48371, size: 0x8, addend: 0x0, symName: __ZNSt3__117__compressed_pairIPPNS_6chrono10time_pointINS1_12steady_clockENS1_8durationIxNS_5ratioILl1ELl1000000000EEEEEEERNS_9allocatorIS9_EEE6secondB7v160006Ev, symObjAddr: 0x3C80, symBinAddr: 0x100019F80, symSize: 0x20 }
  - { offsetInCU: 0xB27C, offset: 0x48397, size: 0x8, addend: 0x0, symName: __ZNSt3__122__compressed_pair_elemIRNS_9allocatorIPNS_6chrono10time_pointINS2_12steady_clockENS2_8durationIxNS_5ratioILl1ELl1000000000EEEEEEEEELi1ELb0EE5__getB7v160006Ev, symObjAddr: 0x3CA0, symBinAddr: 0x100019FA0, symSize: 0x20 }
  - { offsetInCU: 0xB2A3, offset: 0x483BE, size: 0x8, addend: 0x0, symName: __ZNSt3__114__split_bufferIPNS_6chrono10time_pointINS1_12steady_clockENS1_8durationIxNS_5ratioILl1ELl1000000000EEEEEEERNS_9allocatorIS9_EEE21_ConstructTransactionD2B7v160006Ev, symObjAddr: 0x3CC0, symBinAddr: 0x100019FC0, symSize: 0x20 }
  - { offsetInCU: 0xB2CC, offset: 0x483E7, size: 0x8, addend: 0x0, symName: __ZNSt3__113move_iteratorIPPNS_6chrono10time_pointINS1_12steady_clockENS1_8durationIxNS_5ratioILl1ELl1000000000EEEEEEEEC2B7v160006ESA_, symObjAddr: 0x3CE0, symBinAddr: 0x100019FE0, symSize: 0x20 }
  - { offsetInCU: 0xB302, offset: 0x4841D, size: 0x8, addend: 0x0, symName: __ZNSt3__19allocatorIPNS_6chrono10time_pointINS1_12steady_clockENS1_8durationIxNS_5ratioILl1ELl1000000000EEEEEEEE9constructB7v160006IS9_JRKS9_EEEvPT_DpOT0_, symObjAddr: 0x3D00, symBinAddr: 0x10001A000, symSize: 0x20 }
  - { offsetInCU: 0xB358, offset: 0x48473, size: 0x8, addend: 0x0, symName: __ZNSt3__19allocatorINS_6chrono10time_pointINS1_12steady_clockENS1_8durationIxNS_5ratioILl1ELl1000000000EEEEEEEE8allocateB7v160006Em, symObjAddr: 0x3D70, symBinAddr: 0x10001A020, symSize: 0x50 }
  - { offsetInCU: 0xB397, offset: 0x484B2, size: 0x8, addend: 0x0, symName: __ZNSt3__116allocator_traitsINS_9allocatorINS_6chrono10time_pointINS2_12steady_clockENS2_8durationIxNS_5ratioILl1ELl1000000000EEEEEEEEEE8max_sizeB7v160006ISA_vEEmRKSA_, symObjAddr: 0x3DC0, symBinAddr: 0x10001A070, symSize: 0x20 }
  - { offsetInCU: 0xB3C4, offset: 0x484DF, size: 0x8, addend: 0x0, symName: __ZNKSt3__19allocatorINS_6chrono10time_pointINS1_12steady_clockENS1_8durationIxNS_5ratioILl1ELl1000000000EEEEEEEE8max_sizeB7v160006Ev, symObjAddr: 0x3E40, symBinAddr: 0x10001A090, symSize: 0x20 }
  - { offsetInCU: 0xB3F4, offset: 0x4850F, size: 0x8, addend: 0x0, symName: __ZNKSt3__123__move_backward_trivialclB7v160006IPNS_6chrono10time_pointINS2_12steady_clockENS2_8durationIxNS_5ratioILl1ELl1000000000EEEEEEESA_Li0EEENS_4pairIPT_PT0_EESD_SD_SF_, symObjAddr: 0x3FF0, symBinAddr: 0x10001A220, symSize: 0x40 }
  - { offsetInCU: 0xB45D, offset: 0x48578, size: 0x8, addend: 0x0, symName: __ZNSt3__14pairIPPNS_6chrono10time_pointINS1_12steady_clockENS1_8durationIxNS_5ratioILl1ELl1000000000EEEEEEESA_EC1B7v160006IRSA_SD_LPv0EEEOT_OT0_, symObjAddr: 0x40E0, symBinAddr: 0x10001A310, symSize: 0x30 }
  - { offsetInCU: 0xB4BA, offset: 0x485D5, size: 0x8, addend: 0x0, symName: __ZNSt3__14pairIPPNS_6chrono10time_pointINS1_12steady_clockENS1_8durationIxNS_5ratioILl1ELl1000000000EEEEEEESA_EC2B7v160006IRSA_SD_LPv0EEEOT_OT0_, symObjAddr: 0x4110, symBinAddr: 0x10001A340, symSize: 0x30 }
  - { offsetInCU: 0xB517, offset: 0x48632, size: 0x8, addend: 0x0, symName: __ZNSt3__114__split_bufferIPNS_6chrono10time_pointINS1_12steady_clockENS1_8durationIxNS_5ratioILl1ELl1000000000EEEEEEERNS_9allocatorIS9_EEEC2EmmSC_, symObjAddr: 0x41F0, symBinAddr: 0x10001A370, symSize: 0xD0 }
  - { offsetInCU: 0xB591, offset: 0x486AC, size: 0x8, addend: 0x0, symName: __ZNSt3__117__compressed_pairIPPNS_6chrono10time_pointINS1_12steady_clockENS1_8durationIxNS_5ratioILl1ELl1000000000EEEEEEERNS_9allocatorIS9_EEEC1B7v160006IDnSD_EEOT_OT0_, symObjAddr: 0x42C0, symBinAddr: 0x10001A440, symSize: 0x30 }
  - { offsetInCU: 0xB5E8, offset: 0x48703, size: 0x8, addend: 0x0, symName: __ZNSt3__117__compressed_pairIPPNS_6chrono10time_pointINS1_12steady_clockENS1_8durationIxNS_5ratioILl1ELl1000000000EEEEEEERNS_9allocatorIS9_EEEC2B7v160006IDnSD_EEOT_OT0_, symObjAddr: 0x4330, symBinAddr: 0x10001A4B0, symSize: 0x40 }
  - { offsetInCU: 0xB63F, offset: 0x4875A, size: 0x8, addend: 0x0, symName: __ZNSt3__122__compressed_pair_elemIRNS_9allocatorIPNS_6chrono10time_pointINS2_12steady_clockENS2_8durationIxNS_5ratioILl1ELl1000000000EEEEEEEEELi1ELb0EEC2B7v160006ISC_vEEOT_, symObjAddr: 0x4390, symBinAddr: 0x10001A4F0, symSize: 0x20 }
  - { offsetInCU: 0xB67F, offset: 0x4879A, size: 0x8, addend: 0x0, symName: __ZNSt3__19allocatorIPNS_6chrono10time_pointINS1_12steady_clockENS1_8durationIxNS_5ratioILl1ELl1000000000EEEEEEEE8allocateB7v160006Em, symObjAddr: 0x43B0, symBinAddr: 0x10001A510, symSize: 0x50 }
  - { offsetInCU: 0xB6BE, offset: 0x487D9, size: 0x8, addend: 0x0, symName: __ZNSt3__116allocator_traitsINS_9allocatorIPNS_6chrono10time_pointINS2_12steady_clockENS2_8durationIxNS_5ratioILl1ELl1000000000EEEEEEEEEE8max_sizeB7v160006ISB_vEEmRKSB_, symObjAddr: 0x4400, symBinAddr: 0x10001A560, symSize: 0x20 }
  - { offsetInCU: 0xB6EB, offset: 0x48806, size: 0x8, addend: 0x0, symName: __ZNKSt3__19allocatorIPNS_6chrono10time_pointINS1_12steady_clockENS1_8durationIxNS_5ratioILl1ELl1000000000EEEEEEEE8max_sizeB7v160006Ev, symObjAddr: 0x4420, symBinAddr: 0x10001A580, symSize: 0x20 }
  - { offsetInCU: 0xB712, offset: 0x4882D, size: 0x8, addend: 0x0, symName: __ZNSt3__122__allocator_destructorINS_9allocatorINS_6chrono10time_pointINS2_12steady_clockENS2_8durationIxNS_5ratioILl1ELl1000000000EEEEEEEEEEC2B7v160006ERSA_m, symObjAddr: 0x4440, symBinAddr: 0x10001A5A0, symSize: 0x30 }
  - { offsetInCU: 0xB757, offset: 0x48872, size: 0x8, addend: 0x0, symName: __ZNSt3__110unique_ptrIPNS_6chrono10time_pointINS1_12steady_clockENS1_8durationIxNS_5ratioILl1ELl1000000000EEEEEEENS_22__allocator_destructorINS_9allocatorIS8_EEEEEC2B7v160006ILb1EvEES9_NS_16__dependent_typeINS_27__unique_ptr_deleter_sfinaeISD_EEXT_EE20__good_rval_ref_typeE, symObjAddr: 0x4470, symBinAddr: 0x10001A5D0, symSize: 0x40 }
  - { offsetInCU: 0xB7A7, offset: 0x488C2, size: 0x8, addend: 0x0, symName: __ZNSt3__117__compressed_pairIPNS_6chrono10time_pointINS1_12steady_clockENS1_8durationIxNS_5ratioILl1ELl1000000000EEEEEEENS_22__allocator_destructorINS_9allocatorIS8_EEEEEC1B7v160006IRS9_SD_EEOT_OT0_, symObjAddr: 0x44B0, symBinAddr: 0x10001A610, symSize: 0x30 }
  - { offsetInCU: 0xB7FE, offset: 0x48919, size: 0x8, addend: 0x0, symName: __ZNSt3__117__compressed_pairIPNS_6chrono10time_pointINS1_12steady_clockENS1_8durationIxNS_5ratioILl1ELl1000000000EEEEEEENS_22__allocator_destructorINS_9allocatorIS8_EEEEEC2B7v160006IRS9_SD_EEOT_OT0_, symObjAddr: 0x44E0, symBinAddr: 0x10001A640, symSize: 0x40 }
  - { offsetInCU: 0xB855, offset: 0x48970, size: 0x8, addend: 0x0, symName: __ZNSt3__122__compressed_pair_elemIPNS_6chrono10time_pointINS1_12steady_clockENS1_8durationIxNS_5ratioILl1ELl1000000000EEEEEEELi0ELb0EEC2B7v160006IRS9_vEEOT_, symObjAddr: 0x4520, symBinAddr: 0x10001A680, symSize: 0x20 }
  - { offsetInCU: 0xB896, offset: 0x489B1, size: 0x8, addend: 0x0, symName: __ZNSt3__122__compressed_pair_elemINS_22__allocator_destructorINS_9allocatorINS_6chrono10time_pointINS3_12steady_clockENS3_8durationIxNS_5ratioILl1ELl1000000000EEEEEEEEEEELi1ELb0EEC2B7v160006ISC_vEEOT_, symObjAddr: 0x4540, symBinAddr: 0x10001A6A0, symSize: 0x30 }
  - { offsetInCU: 0xB8D6, offset: 0x489F1, size: 0x8, addend: 0x0, symName: __ZNKSt3__117__compressed_pairIPNS_6chrono10time_pointINS1_12steady_clockENS1_8durationIxNS_5ratioILl1ELl1000000000EEEEEEENS_22__allocator_destructorINS_9allocatorIS8_EEEEE5firstB7v160006Ev, symObjAddr: 0x4570, symBinAddr: 0x10001A6D0, symSize: 0x20 }
  - { offsetInCU: 0xB8FC, offset: 0x48A17, size: 0x8, addend: 0x0, symName: __ZNKSt3__122__compressed_pair_elemIPNS_6chrono10time_pointINS1_12steady_clockENS1_8durationIxNS_5ratioILl1ELl1000000000EEEEEEELi0ELb0EE5__getB7v160006Ev, symObjAddr: 0x4590, symBinAddr: 0x10001A6F0, symSize: 0x10 }
  - { offsetInCU: 0xB922, offset: 0x48A3D, size: 0x8, addend: 0x0, symName: __ZNSt3__117__compressed_pairIPNS_6chrono10time_pointINS1_12steady_clockENS1_8durationIxNS_5ratioILl1ELl1000000000EEEEEEENS_22__allocator_destructorINS_9allocatorIS8_EEEEE5firstB7v160006Ev, symObjAddr: 0x45A0, symBinAddr: 0x10001A700, symSize: 0x20 }
  - { offsetInCU: 0xB948, offset: 0x48A63, size: 0x8, addend: 0x0, symName: __ZNSt3__122__compressed_pair_elemIPNS_6chrono10time_pointINS1_12steady_clockENS1_8durationIxNS_5ratioILl1ELl1000000000EEEEEEELi0ELb0EE5__getB7v160006Ev, symObjAddr: 0x45C0, symBinAddr: 0x10001A720, symSize: 0x10 }
  - { offsetInCU: 0xB96E, offset: 0x48A89, size: 0x8, addend: 0x0, symName: __ZNSt3__117__compressed_pairIPPNS_6chrono10time_pointINS1_12steady_clockENS1_8durationIxNS_5ratioILl1ELl1000000000EEEEEEENS_9allocatorIS9_EEE5firstB7v160006Ev, symObjAddr: 0x45D0, symBinAddr: 0x10001A730, symSize: 0x20 }
  - { offsetInCU: 0xB994, offset: 0x48AAF, size: 0x8, addend: 0x0, symName: __ZNSt3__122__compressed_pair_elemIPPNS_6chrono10time_pointINS1_12steady_clockENS1_8durationIxNS_5ratioILl1ELl1000000000EEEEEEELi0ELb0EE5__getB7v160006Ev, symObjAddr: 0x45F0, symBinAddr: 0x10001A750, symSize: 0x10 }
  - { offsetInCU: 0xB9BA, offset: 0x48AD5, size: 0x8, addend: 0x0, symName: __ZNSt3__117__compressed_pairIPPNS_6chrono10time_pointINS1_12steady_clockENS1_8durationIxNS_5ratioILl1ELl1000000000EEEEEEERNS_9allocatorIS9_EEE5firstB7v160006Ev, symObjAddr: 0x4600, symBinAddr: 0x10001A760, symSize: 0x20 }
  - { offsetInCU: 0xB9E1, offset: 0x48AFC, size: 0x8, addend: 0x0, symName: __ZNSt3__110unique_ptrIPNS_6chrono10time_pointINS1_12steady_clockENS1_8durationIxNS_5ratioILl1ELl1000000000EEEEEEENS_22__allocator_destructorINS_9allocatorIS8_EEEEED2B7v160006Ev, symObjAddr: 0x4620, symBinAddr: 0x10001A780, symSize: 0x20 }
  - { offsetInCU: 0xBA09, offset: 0x48B24, size: 0x8, addend: 0x0, symName: __ZNSt3__110unique_ptrIPNS_6chrono10time_pointINS1_12steady_clockENS1_8durationIxNS_5ratioILl1ELl1000000000EEEEEEENS_22__allocator_destructorINS_9allocatorIS8_EEEEE5resetB7v160006ES9_, symObjAddr: 0x4640, symBinAddr: 0x10001A7A0, symSize: 0x70 }
  - { offsetInCU: 0xBA4E, offset: 0x48B69, size: 0x8, addend: 0x0, symName: __ZNSt3__117__compressed_pairIPNS_6chrono10time_pointINS1_12steady_clockENS1_8durationIxNS_5ratioILl1ELl1000000000EEEEEEENS_22__allocator_destructorINS_9allocatorIS8_EEEEE6secondB7v160006Ev, symObjAddr: 0x46B0, symBinAddr: 0x10001A810, symSize: 0x20 }
  - { offsetInCU: 0xBA74, offset: 0x48B8F, size: 0x8, addend: 0x0, symName: __ZNSt3__122__allocator_destructorINS_9allocatorINS_6chrono10time_pointINS2_12steady_clockENS2_8durationIxNS_5ratioILl1ELl1000000000EEEEEEEEEEclB7v160006EPS9_, symObjAddr: 0x46D0, symBinAddr: 0x10001A830, symSize: 0x30 }
  - { offsetInCU: 0xBAA8, offset: 0x48BC3, size: 0x8, addend: 0x0, symName: __ZNSt3__122__compressed_pair_elemINS_22__allocator_destructorINS_9allocatorINS_6chrono10time_pointINS3_12steady_clockENS3_8durationIxNS_5ratioILl1ELl1000000000EEEEEEEEEEELi1ELb0EE5__getB7v160006Ev, symObjAddr: 0x4700, symBinAddr: 0x10001A860, symSize: 0x10 }
  - { offsetInCU: 0xBACF, offset: 0x48BEA, size: 0x8, addend: 0x0, symName: __ZNSt3__114__split_bufferIPNS_6chrono10time_pointINS1_12steady_clockENS1_8durationIxNS_5ratioILl1ELl1000000000EEEEEEERNS_9allocatorIS9_EEED2Ev, symObjAddr: 0x47F0, symBinAddr: 0x10001A870, symSize: 0x70 }
  - { offsetInCU: 0xBAFA, offset: 0x48C15, size: 0x8, addend: 0x0, symName: __ZNSt3__114__split_bufferIPNS_6chrono10time_pointINS1_12steady_clockENS1_8durationIxNS_5ratioILl1ELl1000000000EEEEEEERNS_9allocatorIS9_EEE5clearB7v160006Ev, symObjAddr: 0x4860, symBinAddr: 0x10001A8E0, symSize: 0x20 }
  - { offsetInCU: 0xBB20, offset: 0x48C3B, size: 0x8, addend: 0x0, symName: __ZNKSt3__114__split_bufferIPNS_6chrono10time_pointINS1_12steady_clockENS1_8durationIxNS_5ratioILl1ELl1000000000EEEEEEERNS_9allocatorIS9_EEE8capacityB7v160006Ev, symObjAddr: 0x48B0, symBinAddr: 0x10001A900, symSize: 0x30 }
  - { offsetInCU: 0xBB46, offset: 0x48C61, size: 0x8, addend: 0x0, symName: __ZNSt3__114__split_bufferIPNS_6chrono10time_pointINS1_12steady_clockENS1_8durationIxNS_5ratioILl1ELl1000000000EEEEEEERNS_9allocatorIS9_EEE17__destruct_at_endB7v160006EPS9_, symObjAddr: 0x48E0, symBinAddr: 0x10001A930, symSize: 0x30 }
  - { offsetInCU: 0xBB7B, offset: 0x48C96, size: 0x8, addend: 0x0, symName: __ZNSt3__114__split_bufferIPNS_6chrono10time_pointINS1_12steady_clockENS1_8durationIxNS_5ratioILl1ELl1000000000EEEEEEERNS_9allocatorIS9_EEE17__destruct_at_endB7v160006EPS9_NS_17integral_constantIbLb0EEE, symObjAddr: 0x4910, symBinAddr: 0x10001A960, symSize: 0x80 }
  - { offsetInCU: 0xBBBB, offset: 0x48CD6, size: 0x8, addend: 0x0, symName: __ZNKSt3__114__split_bufferIPNS_6chrono10time_pointINS1_12steady_clockENS1_8durationIxNS_5ratioILl1ELl1000000000EEEEEEERNS_9allocatorIS9_EEE9__end_capB7v160006Ev, symObjAddr: 0x4A10, symBinAddr: 0x10001A9E0, symSize: 0x20 }
  - { offsetInCU: 0xBBE1, offset: 0x48CFC, size: 0x8, addend: 0x0, symName: __ZNKSt3__117__compressed_pairIPPNS_6chrono10time_pointINS1_12steady_clockENS1_8durationIxNS_5ratioILl1ELl1000000000EEEEEEERNS_9allocatorIS9_EEE5firstB7v160006Ev, symObjAddr: 0x4A30, symBinAddr: 0x10001AA00, symSize: 0x20 }
  - { offsetInCU: 0xBC07, offset: 0x48D22, size: 0x8, addend: 0x0, symName: __ZNSt3__19allocatorINS_6chrono10time_pointINS1_12steady_clockENS1_8durationIxNS_5ratioILl1ELl1000000000EEEEEEEE9constructB7v160006IS8_JS8_EEEvPT_DpOT0_, symObjAddr: 0x4A50, symBinAddr: 0x10001AA20, symSize: 0x20 }
...
